
.debug/STM32F042.elf:     file format elf32-littlearm

Sections:
Idx Name          Size      VMA       LMA       File off  Algn
  0 .vector_table 000000c0  08000000  08000000  00010000  2**2
                  CONTENTS, ALLOC, LOAD, DATA
  1 .text         00000540  080000c0  080000c0  000100c0  2**2
                  CONTENTS, ALLOC, LOAD, READONLY, CODE
  2 .rodata       00000000  08000600  08000600  00020024  2**0
                  CONTENTS, ALLOC, LOAD, DATA
  3 .data         00000024  20000000  08000600  00020000  2**2
                  CONTENTS, ALLOC, LOAD, DATA
  4 .bss          00000000  20000024  08000624  00020024  2**0
                  ALLOC
  5 ._user_heap_stack 00000080  20000024  08000624  00020024  2**0
                  ALLOC
  6 .ARM.attributes 00000031  00000000  00000000  00020024  2**0
                  CONTENTS, READONLY
  7 .debug_info   000005be  00000000  00000000  00020055  2**0
                  CONTENTS, READONLY, DEBUGGING
  8 .debug_abbrev 000002ab  00000000  00000000  00020613  2**0
                  CONTENTS, READONLY, DEBUGGING
  9 .debug_aranges 000000b0  00000000  00000000  000208be  2**0
                  CONTENTS, READONLY, DEBUGGING
 10 .debug_ranges 00000080  00000000  00000000  0002096e  2**0
                  CONTENTS, READONLY, DEBUGGING
 11 .debug_line   00000320  00000000  00000000  000209ee  2**0
                  CONTENTS, READONLY, DEBUGGING
 12 .debug_str    0000036d  00000000  00000000  00020d0e  2**0
                  CONTENTS, READONLY, DEBUGGING
 13 .comment      0000006e  00000000  00000000  0002107b  2**0
                  CONTENTS, READONLY
 14 .debug_frame  00000224  00000000  00000000  000210ec  2**2
                  CONTENTS, READONLY, DEBUGGING
Contents of section .vector_table:
 8000000 ff170020 45020008 25020008 31020008  ... E...%...1...
 8000010 00000000 00000000 00000000 00000000  ................
 8000020 00000000 00000000 00000000 0d020008  ................
 8000030 00000000 00000000 19020008 39020008  ............9...
 8000040 61020008 61020008 61020008 61020008  a...a...a...a...
 8000050 61020008 61020008 61020008 61020008  a...a...a...a...
 8000060 61020008 61020008 61020008 61020008  a...a...a...a...
 8000070 61020008 61020008 61020008 61020008  a...a...a...a...
 8000080 61020008 00000000 00000000 61020008  a...........a...
 8000090 00000000 61020008 61020008 61020008  ....a...a...a...
 80000a0 00000000 61020008 61020008 61020008  ....a...a...a...
 80000b0 61020008 00000000 61020008 61020008  a.......a...a...
Contents of section .text:
 80000c0 00224308 8b4274d3 03098b42 5fd3030a  ."C..Bt....B_...
 80000d0 8b4244d3 030b8b42 28d3030c 8b420dd3  .BD....B(....B..
 80000e0 ff220902 12ba030c 8b4202d3 12120902  .".......B......
 80000f0 65d0030b 8b4219d3 00e0090a c30b8b42  e....B.........B
 8000100 01d3cb03 c01a5241 830b8b42 01d38b03  ......RA...B....
 8000110 c01a5241 430b8b42 01d34b03 c01a5241  ..RAC..B..K...RA
 8000120 030b8b42 01d30b03 c01a5241 c30a8b42  ...B......RA...B
 8000130 01d3cb02 c01a5241 830a8b42 01d38b02  ......RA...B....
 8000140 c01a5241 430a8b42 01d34b02 c01a5241  ..RAC..B..K...RA
 8000150 030a8b42 01d30b02 c01a5241 cdd2c309  ...B......RA....
 8000160 8b4201d3 cb01c01a 52418309 8b4201d3  .B......RA...B..
 8000170 8b01c01a 52414309 8b4201d3 4b01c01a  ....RAC..B..K...
 8000180 52410309 8b4201d3 0b01c01a 5241c308  RA...B......RA..
 8000190 8b4201d3 cb00c01a 52418308 8b4201d3  .B......RA...B..
 80001a0 8b00c01a 52414308 8b4201d3 4b00c01a  ....RAC..B..K...
 80001b0 5241411a 00d20146 52411046 7047ffe7  RAA....FRA.FpG..
 80001c0 01b50020 00f006f8 02bdc046 0029f7d0  ... .......F.)..
 80001d0 76e77047 7047c046 80b584b0 00af094b  v.pGpG.F.......K
 80001e0 180000f0 d9f90300 fb60fb68 052b01d0  .........`.h.+..
 80001f0 0523fb60 fa680449 3b1d1800 00f08ef9  .#.`.h.I;.......
 8000200 fee7c046 00000020 08000020 80b500af  ...F... ... ....
 8000210 c046bd46 80bdc046 80b500af c046bd46  .F.F...F.....F.F
 8000220 80bdc046 80b500af c046bd46 80bdc046  ...F.....F.F...F
 8000230 80b500af fee7c046 80b500af c046bd46  .......F.....F.F
 8000240 80bdc046 80b500af 00f010f8 00f02ef8  ...F............
 8000250 00f044f8 fff7c0ff c046bd46 80bdc046  ..D......F.F...F
 8000260 80b500af c046bd46 80bdc046 80b582b0  .....F.F...F....
 8000270 00af0b4b 3b600b4b 7b6008e0 3b681a1d  ...K;`.K{`..;h..
 8000280 3a601a68 7b681a60 7b680433 7b607a68  :`.h{h.`{h.3{`zh
 8000290 054b9a42 f2d9c046 bd4602b0 80bdc046  .K.B...F.F.....F
 80002a0 00060008 00000020 24000020 80b582b0  ....... $.. ....
 80002b0 00af084b 7b6005e0 7b680022 1a607b68  ...K{`..{h.".`{h
 80002c0 04337b60 7a68044b 9a42f5d9 c046bd46  .3{`zh.K.B...F.F
 80002d0 02b080bd 24000020 24000020 80b500af  ....$.. $.. ....
 80002e0 1b4b1b4a 12680121 0a431a60 184b184a  .K.J.h.!.C.`.K.J
 80002f0 52681849 0a405a60 154b154a 12681649  Rh.I.@Z`.K.J.h.I
 8000300 0a401a60 124b124a 12681449 0a401a60  .@.`.K.J.h.I.@.`
 8000310 0f4b0f4a 52681249 0a405a60 0c4b0c4a  .K.JRh.I.@Z`.K.J
 8000320 d26a0f21 8a43da62 094b094a 126b0d49  .j.!.C.b.K.J.k.I
 8000330 0a401a63 064b064a 526b0121 8a435a63  .@.c.K.JRk.!.CZc
 8000340 034b0022 9a6000f0 79f8c046 bd4680bd  .K.".`..y..F.F..
 8000350 00100240 0cb8ff08 fffff6fe fffffbff  ...@............
 8000360 ffffc0ff acfeffff 80b584b0 00af0023  ...............#
 8000370 fb600023 bb600023 7b600023 3b602a4b  .`.#.`.#{`.#;`*K
 8000380 5b680c22 1340fb60 fb68042b 07d0082b  [h.".@.`.h.+...+
 8000390 09d0002b 31d1254b 254a1a60 31e0234b  ...+1.%K%J.`1.#K
 80003a0 234a1a60 2de0204b 5a68f023 9b031340  #J.`-. KZh.#...@
 80003b0 bb601d4b 5a68c023 5b021340 7b60bb68  .`.KZh.#[..@{`.h
 80003c0 9b0c0233 bb607b68 002b05d1 bb68194a  ...3.`{h.+...h.J
 80003d0 5a43164b 1a6014e0 134bdb6a 0f221340  ZC.K.`...K.j.".@
 80003e0 01333b60 39681248 fff76afe 03001a00  .3;`9h.H..j.....
 80003f0 bb685a43 0d4b1a60 03e00c4b 0c4a1a60  .hZC.K.`...K.J.`
 8000400 c046094b 5b68f022 13401b09 0a4ad35c  .F.K[h.".@...J.\
 8000410 dbb2fb60 054b1a68 fb68da40 034b1a60  ...`.K.h.h.@.K.`
 8000420 c046bd46 04b080bd 00100240 10000020  .F.F.......@... 
 8000430 00127a00 00093d00 14000020 80b582b0  ..z...=.... ....
 8000440 00af0023 7b600023 3b60314b 304a1268  ...#{`.#;`1K0J.h
 8000450 80214902 0a431a60 2d4b1a68 80239b02  .!I..C.`-K.h.#..
 8000460 13403b60 7b680133 7b603b68 002b04d1  .@;`{h.3{`;h.+..
 8000470 7a68a023 db019a42 eed1254b 1a688023  zh.#...B..%K.h.#
 8000480 9b021340 02d00123 3b6001e0 00233b60  ...@...#;`...#;`
 8000490 3b68012b 38d11f4b 11221a60 1c4b1c4a  ;h.+8..K.".`.K.J
 80004a0 52685a60 1a4b1a4a 52685a60 184b184a  RhZ`.K.JRhZ`.K.J
 80004b0 52681949 0a405a60 154b154a 52688821  Rh.I.@Z`.K.JRh.!
 80004c0 49030a43 5a60124b 114a1268 80214904  I..CZ`.K.J.h.!I.
 80004d0 0a431a60 c0460e4b 1a688023 9b041340  .C.`.F.K.h.#...@
 80004e0 f9d00b4b 0a4a5268 03218a43 5a60084b  ...K.JRh.!.CZ`.K
 80004f0 074a5268 02210a43 5a60c046 044b5b68  .JRh.!.CZ`.F.K[h
 8000500 0c221340 082bf9d1 c046bd46 02b080bd  .".@.+...F.F....
 8000510 00100240 00200240 ff7fc0ff 70b50f2a  ...@. .@....p..*
 8000520 32d90c00 04430b00 a40731d1 15000400  2....C....1.....
 8000530 103d2d09 01352d01 49191e68 26605e68  .=-..5-.I..h&`^h
 8000540 66609e68 a660de68 1033e660 10349942  f`.h.`.h.3.`.4.B
 8000550 f3d10f23 45191340 032b1bd9 1c1f0023  ...#E..@.+.....#
 8000560 a4080134 a400ce58 ee500433 9c42fad1  ...4...X.P.3.B..
 8000570 03232d19 09191a40 05d00023 cc5cec54  .#-....@...#.\.T
 8000580 01339a42 fad170bd 0500002a f5d1fae7  .3.B..p....*....
 8000590 0500f2e7 1a00f8e7 10b58307 27d00378  ............'..x
 80005a0 002b26d0 03000321 02e01a78 002a1cd0  .+&....!...x.*..
 80005b0 01330b42 f9d11968 0f4a104c 8a188a43  .3.B...h.J.L...C
 80005c0 22420fd1 04331968 0b4a8a18 8a432242  "B...3.h.J...C"B
 80005d0 08d10433 1968084a 8a188a43 2242f1d0  ...3.h.J...C"B..
 80005e0 00e00133 1a78002a fbd1181a 10bd0300  ...3.x.*........
 80005f0 e1e70020 fae7c046 fffefefe 80808080  ... ...F........
Contents of section .data:
 20000000 48656c6c 6f210000 01020304 05000000  Hello!..........
 20000010 006cdc02 00000000 00000000 01020304  .l..............
 20000020 06070809                             ....            
Contents of section .ARM.attributes:
 0000 41300000 00616561 62690001 26000000  A0...aeabi..&...
 0010 05436f72 7465782d 4d300006 0c074d09  .Cortex-M0....M.
 0020 01120414 01150117 03180119 011a011e  ................
 0030 06                                   .               
Contents of section .debug_info:
 0000 0e010000 04000000 00000401 4d000000  ............M...
 0010 0c0e0000 00ed0000 00000000 00000000  ................
 0020 00000000 00020106 2c010000 03430000  ........,....C..
 0030 00021d37 00000002 01082a01 00000202  ...7......*.....
 0040 05500100 00020207 38010000 02040505  .P......8.......
 0050 00000002 04073100 00000208 05000000  ......1.........
 0060 00020807 2c000000 04040569 6e740002  ....,......int..
 0070 04073600 00000345 00000003 182c0000  ..6....E.....,..
 0080 00020407 5a010000 02010833 01000005  ....Z......3....
 0090 4b010000 010b6800 0000d801 00083400  K.....h.......4.
 00a0 0000019c c5000000 066c656e 00010f68  .........len...h
 00b0 00000002 91740720 00000001 11c50000  .....t. ........
 00c0 0002916c 00087600 0000d500 00000981  ...l..v.........
 00d0 00000004 0008e500 0000e500 00000981  ................
 00e0 00000006 000a8800 00000b73 74720001  ...........str..
 00f0 07fb0000 00050300 0000200a d5000000  .......... .....
 0100 0c150000 000109c5 00000005 03080000  ................
 0110 2000a701 00000400 ac000000 04014d00   .............M.
 0120 00000c63 010000ed 00000010 00000000  ...c............
 0130 000000d4 00000002 01062c01 00000201  ..........,.....
 0140 082a0100 00020205 50010000 02020738  .*......P......8
 0150 01000002 04050500 00000204 07310000  .............1..
 0160 00020805 00000000 0208072c 00000003  ...........,....
 0170 0405696e 74000204 07360000 00020407  ..int....6......
 0180 5a010000 04bb0100 0001500c 0200080a  Z.........P.....
 0190 00000001 9c042902 00000155 18020008  ......)....U....
 01a0 0a000000 019c04ec 01000001 5a240200  ............Z$..
 01b0 080a0000 00019c04 c7010000 015f3002  ............._0.
 01c0 00080600 0000019c 049b0100 00016438  ..............d8
 01d0 0200080a 00000001 9c058d01 00000169  ...............i
 01e0 44020008 1a000000 019c0401 02000001  D...............
 01f0 76600200 080a0000 00019c06 ab010000  v`..............
 0200 017d6c02 00084000 0000019c 1b010000  .}l...@.........
 0210 07860100 00017f1b 01000002 917407b5  .............t..
 0220 01000001 801b0100 00029170 00080448  ...........p...H
 0230 00000006 f8010000 0189ac02 00083000  ..............0.
 0240 0000019c 45010000 07860100 00018b1b  ....E...........
 0250 01000002 91740009 38020000 01144800  .....t..8.....H.
 0260 0000096d 01000001 15480000 0009e301  ...m.....H......
 0270 00000116 48000000 09780100 00011748  ....H....x.....H
 0280 00000009 11020000 01194800 000009d9  ..........H.....
 0290 01000001 1a480000 000a9701 00009701  .....H..........
 02a0 00000b6b 0000002f 000c040d 1d020000  ...k.../........
 02b0 011c8701 00000503 00000008 00fd0200  ................
 02c0 00040073 01000004 014d0000 000c9602  ...s.....M......
 02d0 0000ed00 00006000 00000000 0000c401  ......`.........
 02e0 00000201 062c0100 00034300 0000021d  .....,....C.....
 02f0 37000000 0201082a 01000002 02055001  7......*......P.
 0300 00000350 03000002 2b500000 00020207  ...P....+P......
 0310 38010000 02040505 00000003 f2020000  8...............
 0320 02416900 00000204 07310000 00020805  .Ai......1......
 0330 00000000 0208072c 00000004 0405696e  .......,......in
 0340 74000204 07360000 00034500 00000318  t....6....E.....
 0350 2c000000 03520300 00032445 00000003  ,....R....$E....
 0360 f4020000 03305e00 00000204 075a0100  .....0^......Z..
 0370 0005a200 00000601 37000000 04e701d3  ........7.......
 0380 00000007 67030000 00085345 54000100  ....g.....SET...
 0390 058c0000 00092404 c3025401 00000a41  ......$...T....A
 03a0 43520004 c502b400 0000000b cd020000  CR..............
 03b0 04c602b4 00000004 0bca0200 0004c702  ................
 03c0 b4000000 080a5352 0004c802 b4000000  ......SR........
 03d0 0c0a4352 0004c902 b4000000 100a4152  ..CR..........AR
 03e0 0004ca02 b4000000 140be002 000004cb  ................
 03f0 02b40000 00180a4f 42520004 cc02b400  .......OBR......
 0400 00001c0b a9020000 04cd02b4 00000020  ............... 
 0410 000c7b02 000004ce 02d80000 00093804  ..{...........8.
 0420 34031f02 00000a43 52000436 03b40000  4......CR..6....
 0430 00000b5a 02000004 3703b400 0000040a  ...Z....7.......
 0440 43495200 043803b4 00000008 0b050300  CIR..8..........
 0450 00043903 b4000000 0c0be902 0000043a  ..9............:
 0460 03b40000 00100b89 02000004 3b03b400  ............;...
 0470 0000140b ae020000 043c03b4 00000018  .........<......
 0480 0bfd0200 00043d03 b4000000 1c0b1a03  ......=.........
 0490 0000043e 03b40000 00200a43 53520004  ...>..... .CSR..
 04a0 3f03b400 0000240b 69020000 044003b4  ?.....$.i....@..
 04b0 00000028 0b900200 00044103 b4000000  ...(......A.....
 04c0 2c0bc402 00000442 03b40000 00300a43  ,......B.....0.C
 04d0 52320004 4303b400 00003400 0c5b0300  R2..C.....4..[..
 04e0 00044403 60010000 0d1f0300 00019fdc  ..D.`...........
 04f0 0200088c 00000001 9c0e3a03 000001e8  ..........:.....
 0500 68030008 d4000000 019c8a02 00000f74  h..............t
 0510 6d700001 eaa20000 00029174 10430200  mp.........t.C..
 0520 0001eaa2 00000002 9170105f 02000001  .........p._....
 0530 eaa20000 0002916c 10d20200 0001eaa2  .......l........
 0540 00000002 91680011 0e030000 011c013c  .....h.........<
 0550 040008e0 00000001 9cbf0200 00124b02  ..............K.
 0560 0000011e 01b40000 00029174 12710200  ...........t.q..
 0570 00011e01 b4000000 02917000 132a0300  ..........p..*..
 0580 000183a2 00000005 03100000 2014e002  ............ ...
 0590 0000e002 000015ad 0000000f 0016d300  ................
 05a0 000013b6 02000001 84fb0200 00050314  ................
 05b0 00002005 d0020000 16f60200 0000      .. ...........  
Contents of section .debug_abbrev:
 0000 01110125 0e130b03 0e1b0e55 17110110  ...%.......U....
 0010 17000002 24000b0b 3e0b030e 00000316  ....$...>.......
 0020 00030e3a 0b3b0b49 13000004 24000b0b  ...:.;.I....$...
 0030 3e0b0308 0000052e 013f1903 0e3a0b3b  >........?...:.;
 0040 0b271949 13110112 06401896 42190113  .'.I.....@..B...
 0050 00000634 0003083a 0b3b0b49 13021800  ...4...:.;.I....
 0060 00073400 030e3a0b 3b0b4913 02180000  ..4...:.;.I.....
 0070 08010149 13011300 00092100 49132f0b  ...I......!.I./.
 0080 00000a35 00491300 000b3400 03083a0b  ...5.I....4...:.
 0090 3b0b4913 3f190218 00000c34 00030e3a  ;.I.?......4...:
 00a0 0b3b0b49 133f1902 18000000 01110125  .;.I.?.........%
 00b0 0e130b03 0e1b0e55 17110110 17000002  .......U........
 00c0 24000b0b 3e0b030e 00000324 000b0b3e  $...>......$...>
 00d0 0b030800 00042e00 3f19030e 3a0b3b0b  ........?...:.;.
 00e0 27191101 12064018 97421900 00052e00  '.....@..B......
 00f0 3f19030e 3a0b3b0b 27191101 12064018  ?...:.;.'.....@.
 0100 96421900 00062e01 3f19030e 3a0b3b0b  .B......?...:.;.
 0110 27191101 12064018 97421901 13000007  '.....@..B......
 0120 3400030e 3a0b3b0b 49130218 0000080f  4...:.;.I.......
 0130 000b0b49 13000009 3400030e 3a0b3b0b  ...I....4...:.;.
 0140 49133f19 3c190000 0a010149 13011300  I.?.<......I....
 0150 000b2100 49132f0b 00000c0f 000b0b00  ..!.I./.........
 0160 000d3400 030e3a0b 3b0b4913 3f190218  ..4...:.;.I.?...
 0170 00000001 1101250e 130b030e 1b0e5517  ......%.......U.
 0180 11011017 00000224 000b0b3e 0b030e00  .......$...>....
 0190 00031600 030e3a0b 3b0b4913 00000424  ......:.;.I....$
 01a0 000b0b3e 0b030800 00053500 49130000  ...>......5.I...
 01b0 0604010b 0b49133a 0b3b0501 13000007  .....I.:.;......
 01c0 2800030e 1c0b0000 08280003 081c0b00  (........(......
 01d0 00091301 0b0b3a0b 3b050113 00000a0d  ......:.;.......
 01e0 0003083a 0b3b0549 13380b00 000b0d00  ...:.;.I.8......
 01f0 030e3a0b 3b054913 380b0000 0c160003  ..:.;.I.8.......
 0200 0e3a0b3b 05491300 000d2e00 3f19030e  .:.;.I......?...
 0210 3a0b3b0b 27191101 12064018 96421900  :.;.'.....@..B..
 0220 000e2e01 3f19030e 3a0b3b0b 27191101  ....?...:.;.'...
 0230 12064018 96421901 1300000f 34000308  ..@..B......4...
 0240 3a0b3b0b 49130218 00001034 00030e3a  :.;.I......4...:
 0250 0b3b0b49 13021800 00112e01 030e3a0b  .;.I..........:.
 0260 3b052719 11011206 40189742 19011300  ;.'.....@..B....
 0270 00123400 030e3a0b 3b054913 02180000  ..4...:.;.I.....
 0280 13340003 0e3a0b3b 0b49133f 19021800  .4...:.;.I.?....
 0290 00140101 49130113 00001521 0049132f  ....I......!.I./
 02a0 0b000016 26004913 000000             ....&.I....     
Contents of section .debug_aranges:
 0000 1c000000 02000000 00000400 00000000  ................
 0010 d8010008 34000000 00000000 00000000  ....4...........
 0020 5c000000 02001201 00000400 00000000  \...............
 0030 0c020008 0a000000 18020008 0a000000  ................
 0040 24020008 0a000000 30020008 06000000  $.......0.......
 0050 38020008 0a000000 44020008 1a000000  8.......D.......
 0060 60020008 0a000000 6c020008 40000000  `.......l...@...
 0070 ac020008 30000000 00000000 00000000  ....0...........
 0080 2c000000 0200bd02 00000400 00000000  ,...............
 0090 dc020008 8c000000 68030008 d4000000  ........h.......
 00a0 3c040008 e0000000 00000000 00000000  <...............
Contents of section .debug_ranges:
 0000 d8010008 0c020008 00000000 00000000  ................
 0010 0c020008 16020008 18020008 22020008  ............"...
 0020 24020008 2e020008 30020008 36020008  $.......0...6...
 0030 38020008 42020008 44020008 5e020008  8...B...D...^...
 0040 60020008 6a020008 6c020008 ac020008  `...j...l.......
 0050 ac020008 dc020008 00000000 00000000  ................
 0060 dc020008 68030008 68030008 3c040008  ....h...h...<...
 0070 3c040008 1c050008 00000000 00000000  <...............
Contents of section .debug_line:
 0000 d0000000 0200b200 00000201 fb0e0d00  ................
 0010 01010101 00000001 00000163 3a5c636f  ...........c:\co
 0020 6d70696c 65725c61 726d2d6e 6f6e652d  mpiler\arm-none-
 0030 65616269 2d352e34 5c61726d 2d6e6f6e  eabi-5.4\arm-non
 0040 652d6561 62695c69 6e636c75 64655c6d  e-eabi\include\m
 0050 61636869 6e650063 3a5c636f 6d70696c  achine.c:\compil
 0060 65725c61 726d2d6e 6f6e652d 65616269  er\arm-none-eabi
 0070 2d352e34 5c61726d 2d6e6f6e 652d6561  -5.4\arm-none-ea
 0080 62695c69 6e636c75 64655c73 79730000  bi\include\sys..
 0090 6d61696e 2e630000 00005f64 65666175  main.c...._defau
 00a0 6c745f74 79706573 2e680001 00005f73  lt_types.h...._s
 00b0 7464696e 742e6800 02000000 000502d8  tdint.h.........
 00c0 01000803 0b013f6a 3e310002 04016b02  ......?j>1....k.
 00d0 06000101 ec000000 02002000 00000201  .......... .....
 00e0 fb0e0d00 01010101 00000001 00000100  ................
 00f0 73746172 7475702e 63000000 00000005  startup.c.......
 0100 020c0200 0803d000 01300203 00010100  .........0......
 0110 05021802 000803d5 00013002 03000101  ..........0.....
 0120 00050224 02000803 da000130 02030001  ...$.......0....
 0130 01000502 30020008 03df0001 00020401  ....0...........
 0140 2f020100 01010005 02380200 0803e400  /........8......
 0150 01300203 00010100 05024402 000803e9  .0........D.....
 0160 00012f30 30312f02 03000101 00050260  ../001/........`
 0170 02000803 f6000130 02030001 01000502  .......0........
 0180 6c020008 03fd0001 402f0002 04033e00  l.......@/....>.
 0190 02040364 00020401 063c064e 020b0001  ...d.....<.N....
 01a0 01000502 ac020008 03890101 3f000204  ............?...
 01b0 033e0002 04033a00 02040106 3c064e02  .>....:.....<.N.
 01c0 08000101 58010000 0200cd00 00000201  ....X...........
 01d0 fb0e0d00 01010101 00000001 00000163  ...............c
 01e0 3a5c636f 6d70696c 65725c61 726d2d6e  :\compiler\arm-n
 01f0 6f6e652d 65616269 2d352e34 5c61726d  one-eabi-5.4\arm
 0200 2d6e6f6e 652d6561 62695c69 6e636c75  -none-eabi\inclu
 0210 64655c6d 61636869 6e650063 3a5c636f  de\machine.c:\co
 0220 6d70696c 65725c61 726d2d6e 6f6e652d  mpiler\arm-none-
 0230 65616269 2d352e34 5c61726d 2d6e6f6e  eabi-5.4\arm-non
 0240 652d6561 62695c69 6e636c75 64655c73  e-eabi\include\s
 0250 79730000 73797374 656d5f73 746d3332  ys..system_stm32
 0260 66307878 2e630000 00005f64 65666175  f0xx.c...._defau
 0270 6c745f74 79706573 2e680001 00005f73  lt_types.h...._s
 0280 7464696e 742e6800 02000073 746d3332  tdint.h....stm32
 0290 66307878 2e680000 00000000 0502dc02  f0xx.h..........
 02a0 0008039f 0101306d 6a696969 6969693f  ......0mjiiiiii?
 02b0 2f020f00 01010005 02680300 0803e801  /........h......
 02c0 013d855a 773d223d 2367674c 3f601c68  .=.Zw="=#ggL?`.h
 02d0 a0223d24 9267020e 00010100 05023c04  ."=$.g........<.
 02e0 0008039c 02013d4e 00020402 79000204  ......=N....y...
 02f0 02670002 04023d00 02040106 3c065a68  .g....=.....<.Zh
 0300 40313f3f 4d4d6777 77000204 01062006  @1??MMgww..... .
 0310 6b676900 02040106 20066e02 0a000101  kgi..... .n.....
Contents of section .debug_str:
 0000 6c6f6e67 206c6f6e 6720696e 74006d61  long long int.ma
 0010 696e2e63 00646174 615f6172 72617900  in.c.data_array.
 0020 73746163 6b5f6172 72617900 6c6f6e67  stack_array.long
 0030 206c6f6e 6720756e 7369676e 65642069   long unsigned i
 0040 6e74005f 5f75696e 74385f74 00474e55  nt.__uint8_t.GNU
 0050 20433939 20352e34 2e312032 30313630   C99 5.4.1 20160
 0060 36303920 2872656c 65617365 29205b41  609 (release) [A
 0070 524d2f65 6d626564 6465642d 352d6272  RM/embedded-5-br
 0080 616e6368 20726576 6973696f 6e203233  anch revision 23
 0090 37373135 5d202d6d 7468756d 62202d6d  7715] -mthumb -m
 00a0 6370753d 636f7274 65782d6d 30202d67  cpu=cortex-m0 -g
 00b0 202d4f30 202d7374 643d676e 75393920   -O0 -std=gnu99 
 00c0 2d737464 3d633939 202d6666 756e6374  -std=c99 -ffunct
 00d0 696f6e2d 73656374 696f6e73 202d6664  ion-sections -fd
 00e0 6174612d 73656374 696f6e73 00433a5c  ata-sections.C:\
 00f0 55736572 735c4d6f 7269747a 5c44726f  Users\Moritz\Dro
 0100 70626f78 5c736f66 74776172 6570726f  pbox\softwarepro
 0110 6a656b74 655c6261 72656d65 74616c5f  jekte\baremetal_
 0120 73746d33 32663034 3200756e 7369676e  stm32f042.unsign
 0130 65642063 68617200 73686f72 7420756e  ed char.short un
 0140 7369676e 65642069 6e74006d 61696e00  signed int.main.
 0150 73686f72 7420696e 74007369 7a657479  short int.sizety
 0160 70650073 74617274 75702e63 005f6273  pe.startup.c._bs
 0170 735f7374 61727400 5f726f64 6174615f  s_start._rodata_
 0180 73746172 74006465 73745f70 00526573  start.dest_p.Res
 0190 65745f48 616e646c 65720053 79735469  et_Handler.SysTi
 01a0 636b5f48 616e646c 65720063 6f70795f  ck_Handler.copy_
 01b0 64617461 00737263 5f700053 56435f48  data.src_p.SVC_H
 01c0 616e646c 65720048 61726466 61756c74  andler.Hardfault
 01d0 5f48616e 646c6572 005f6461 74615f65  _Handler._data_e
 01e0 6e64005f 6273735f 656e6400 4e4d495f  nd._bss_end.NMI_
 01f0 48616e64 6c657200 6273735f 7a65726f  Handler.bss_zero
 0200 00646566 61756c74 5f68616e 646c6572  .default_handler
 0210 005f6461 74615f73 74617274 00697372  ._data_start.isr
 0220 5f766563 746f7273 0050656e 6453565f  _vectors.PendSV_
 0230 48616e64 6c657200 5f737461 636b5f65  Handler._stack_e
 0240 6e640070 6c6c6d75 6c6c0053 74617274  nd.pllmull.Start
 0250 5570436f 756e7465 72004346 47520070  UpCounter.CFGR.p
 0260 6c6c736f 75726365 00414842 52535452  llsource.AHBRSTR
 0270 00485345 53746174 75730046 4c415348  .HSEStatus.FLASH
 0280 5f547970 65446566 00414842 454e5200  _TypeDef.AHBENR.
 0290 43464752 32007379 7374656d 5f73746d  CFGR2.system_stm
 02a0 33326630 78782e63 00575250 52004150  32f0xx.c.WRPR.AP
 02b0 4232454e 52004148 42507265 73635461  B2ENR.AHBPrescTa
 02c0 626c6500 43464752 33004f50 544b4559  ble.CFGR3.OPTKEY
 02d0 52007072 65646976 31666163 746f7200  R.prediv1factor.
 02e0 52455345 52564544 00415042 31525354  RESERVED.APB1RST
 02f0 52005f5f 75696e74 33325f74 00415042  R.__uint32_t.APB
 0300 31454e52 00415042 32525354 52005365  1ENR.APB2RSTR.Se
 0310 74537973 436c6f63 6b004244 43520053  tSysClock.BDCR.S
 0320 79737465 6d496e69 74005379 7374656d  ystemInit.System
 0330 436f7265 436c6f63 6b005379 7374656d  CoreClock.System
 0340 436f7265 436c6f63 6b557064 61746500  CoreClockUpdate.
 0350 5f5f7569 6e743136 5f740052 43435f54  __uint16_t.RCC_T
 0360 79706544 65660052 45534554 00        ypeDef.RESET.   
Contents of section .comment:
 0000 4743433a 2028474e 5520546f 6f6c7320  GCC: (GNU Tools 
 0010 666f7220 41524d20 456d6265 64646564  for ARM Embedded
 0020 2050726f 63657373 6f727329 20352e34   Processors) 5.4
 0030 2e312032 30313630 36303920 2872656c  .1 20160609 (rel
 0040 65617365 29205b41 524d2f65 6d626564  ease) [ARM/embed
 0050 6465642d 352d6272 616e6368 20726576  ded-5-branch rev
 0060 6973696f 6e203233 37373135 5d00      ision 237715].  
Contents of section .debug_frame:
 0000 0c000000 ffffffff 0100027c 0e0c0d00  ...........|....
 0010 1c000000 00000000 d8010008 34000000  ............4...
 0020 410e0887 028e0141 0e18410d 07000000  A......A..A.....
 0030 0c000000 ffffffff 0100027c 0e0c0d00  ...........|....
 0040 18000000 30000000 0c020008 0a000000  ....0...........
 0050 410e0887 028e0141 0d070000 18000000  A......A........
 0060 30000000 18020008 0a000000 410e0887  0...........A...
 0070 028e0141 0d070000 18000000 30000000  ...A........0...
 0080 24020008 0a000000 410e0887 028e0141  $.......A......A
 0090 0d070000 18000000 30000000 30020008  ........0...0...
 00a0 06000000 410e0887 028e0141 0d070000  ....A......A....
 00b0 18000000 30000000 38020008 0a000000  ....0...8.......
 00c0 410e0887 028e0141 0d070000 18000000  A......A........
 00d0 30000000 44020008 1a000000 410e0887  0...D.......A...
 00e0 028e0141 0d070000 18000000 30000000  ...A........0...
 00f0 60020008 0a000000 410e0887 028e0141  `.......A......A
 0100 0d070000 1c000000 30000000 6c020008  ........0...l...
 0110 40000000 410e0887 028e0141 0e10410d  @...A......A..A.
 0120 07000000 1c000000 30000000 ac020008  ........0.......
 0130 30000000 410e0887 028e0141 0e10410d  0...A......A..A.
 0140 07000000 0c000000 ffffffff 0100027c  ...............|
 0150 0e0c0d00 18000000 44010000 dc020008  ........D.......
 0160 8c000000 410e0887 028e0141 0d070000  ....A......A....
 0170 1c000000 44010000 68030008 d4000000  ....D...h.......
 0180 410e0887 028e0141 0e18410d 07000000  A......A..A.....
 0190 1c000000 44010000 3c040008 e0000000  ....D...<.......
 01a0 410e0887 028e0141 0e10410d 07000000  A......A..A.....
 01b0 0c000000 ffffffff 0100017c 0e0c0d00  ...........|....
 01c0 0c000000 b0010000 c1000008 0a010000  ................
 01d0 0c000000 ffffffff 0100027c 0e0c0d00  ...........|....
 01e0 18000000 d0010000 1c050008 7c000000  ............|...
 01f0 410e1084 04850386 028e0100 0c000000  A...............
 0200 ffffffff 0100027c 0e0c0d00 14000000  .......|........
 0210 fc010000 98050008 68000000 410e0884  ........h...A...
 0220 028e0100                             ....            

Disassembly of section .vector_table:

08000000 <isr_vectors>:
 8000000:	200017ff 	strdcs	r1, [r0], -pc	; <UNPREDICTABLE>
 8000004:	08000245 	stmdaeq	r0, {r0, r2, r6, r9}
 8000008:	08000225 	stmdaeq	r0, {r0, r2, r5, r9}
 800000c:	08000231 	stmdaeq	r0, {r0, r4, r5, r9}
	...
 800002c:	0800020d 	stmdaeq	r0, {r0, r2, r3, r9}
	...
 8000038:	08000219 	stmdaeq	r0, {r0, r3, r4, r9}
 800003c:	08000239 	stmdaeq	r0, {r0, r3, r4, r5, r9}
 8000040:	08000261 	stmdaeq	r0, {r0, r5, r6, r9}
 8000044:	08000261 	stmdaeq	r0, {r0, r5, r6, r9}
 8000048:	08000261 	stmdaeq	r0, {r0, r5, r6, r9}
 800004c:	08000261 	stmdaeq	r0, {r0, r5, r6, r9}
 8000050:	08000261 	stmdaeq	r0, {r0, r5, r6, r9}
 8000054:	08000261 	stmdaeq	r0, {r0, r5, r6, r9}
 8000058:	08000261 	stmdaeq	r0, {r0, r5, r6, r9}
 800005c:	08000261 	stmdaeq	r0, {r0, r5, r6, r9}
 8000060:	08000261 	stmdaeq	r0, {r0, r5, r6, r9}
 8000064:	08000261 	stmdaeq	r0, {r0, r5, r6, r9}
 8000068:	08000261 	stmdaeq	r0, {r0, r5, r6, r9}
 800006c:	08000261 	stmdaeq	r0, {r0, r5, r6, r9}
 8000070:	08000261 	stmdaeq	r0, {r0, r5, r6, r9}
 8000074:	08000261 	stmdaeq	r0, {r0, r5, r6, r9}
 8000078:	08000261 	stmdaeq	r0, {r0, r5, r6, r9}
 800007c:	08000261 	stmdaeq	r0, {r0, r5, r6, r9}
 8000080:	08000261 	stmdaeq	r0, {r0, r5, r6, r9}
	...
 800008c:	08000261 	stmdaeq	r0, {r0, r5, r6, r9}
 8000090:	00000000 	andeq	r0, r0, r0
 8000094:	08000261 	stmdaeq	r0, {r0, r5, r6, r9}
 8000098:	08000261 	stmdaeq	r0, {r0, r5, r6, r9}
 800009c:	08000261 	stmdaeq	r0, {r0, r5, r6, r9}
 80000a0:	00000000 	andeq	r0, r0, r0
 80000a4:	08000261 	stmdaeq	r0, {r0, r5, r6, r9}
 80000a8:	08000261 	stmdaeq	r0, {r0, r5, r6, r9}
 80000ac:	08000261 	stmdaeq	r0, {r0, r5, r6, r9}
 80000b0:	08000261 	stmdaeq	r0, {r0, r5, r6, r9}
 80000b4:	00000000 	andeq	r0, r0, r0
 80000b8:	08000261 	stmdaeq	r0, {r0, r5, r6, r9}
 80000bc:	08000261 	stmdaeq	r0, {r0, r5, r6, r9}

Disassembly of section .text:

080000c0 <__aeabi_uidiv>:
__aeabi_uidiv():
 80000c0:	2200      	movs	r2, #0
 80000c2:	0843      	lsrs	r3, r0, #1
 80000c4:	428b      	cmp	r3, r1
 80000c6:	d374      	bcc.n	80001b2 <__aeabi_uidiv+0xf2>
 80000c8:	0903      	lsrs	r3, r0, #4
 80000ca:	428b      	cmp	r3, r1
 80000cc:	d35f      	bcc.n	800018e <__aeabi_uidiv+0xce>
 80000ce:	0a03      	lsrs	r3, r0, #8
 80000d0:	428b      	cmp	r3, r1
 80000d2:	d344      	bcc.n	800015e <__aeabi_uidiv+0x9e>
 80000d4:	0b03      	lsrs	r3, r0, #12
 80000d6:	428b      	cmp	r3, r1
 80000d8:	d328      	bcc.n	800012c <__aeabi_uidiv+0x6c>
 80000da:	0c03      	lsrs	r3, r0, #16
 80000dc:	428b      	cmp	r3, r1
 80000de:	d30d      	bcc.n	80000fc <__aeabi_uidiv+0x3c>
 80000e0:	22ff      	movs	r2, #255	; 0xff
 80000e2:	0209      	lsls	r1, r1, #8
 80000e4:	ba12      	rev	r2, r2
 80000e6:	0c03      	lsrs	r3, r0, #16
 80000e8:	428b      	cmp	r3, r1
 80000ea:	d302      	bcc.n	80000f2 <__aeabi_uidiv+0x32>
 80000ec:	1212      	asrs	r2, r2, #8
 80000ee:	0209      	lsls	r1, r1, #8
 80000f0:	d065      	beq.n	80001be <__aeabi_uidiv+0xfe>
 80000f2:	0b03      	lsrs	r3, r0, #12
 80000f4:	428b      	cmp	r3, r1
 80000f6:	d319      	bcc.n	800012c <__aeabi_uidiv+0x6c>
 80000f8:	e000      	b.n	80000fc <__aeabi_uidiv+0x3c>
 80000fa:	0a09      	lsrs	r1, r1, #8
 80000fc:	0bc3      	lsrs	r3, r0, #15
 80000fe:	428b      	cmp	r3, r1
 8000100:	d301      	bcc.n	8000106 <__aeabi_uidiv+0x46>
 8000102:	03cb      	lsls	r3, r1, #15
 8000104:	1ac0      	subs	r0, r0, r3
 8000106:	4152      	adcs	r2, r2
 8000108:	0b83      	lsrs	r3, r0, #14
 800010a:	428b      	cmp	r3, r1
 800010c:	d301      	bcc.n	8000112 <__aeabi_uidiv+0x52>
 800010e:	038b      	lsls	r3, r1, #14
 8000110:	1ac0      	subs	r0, r0, r3
 8000112:	4152      	adcs	r2, r2
 8000114:	0b43      	lsrs	r3, r0, #13
 8000116:	428b      	cmp	r3, r1
 8000118:	d301      	bcc.n	800011e <__aeabi_uidiv+0x5e>
 800011a:	034b      	lsls	r3, r1, #13
 800011c:	1ac0      	subs	r0, r0, r3
 800011e:	4152      	adcs	r2, r2
 8000120:	0b03      	lsrs	r3, r0, #12
 8000122:	428b      	cmp	r3, r1
 8000124:	d301      	bcc.n	800012a <__aeabi_uidiv+0x6a>
 8000126:	030b      	lsls	r3, r1, #12
 8000128:	1ac0      	subs	r0, r0, r3
 800012a:	4152      	adcs	r2, r2
 800012c:	0ac3      	lsrs	r3, r0, #11
 800012e:	428b      	cmp	r3, r1
 8000130:	d301      	bcc.n	8000136 <__aeabi_uidiv+0x76>
 8000132:	02cb      	lsls	r3, r1, #11
 8000134:	1ac0      	subs	r0, r0, r3
 8000136:	4152      	adcs	r2, r2
 8000138:	0a83      	lsrs	r3, r0, #10
 800013a:	428b      	cmp	r3, r1
 800013c:	d301      	bcc.n	8000142 <__aeabi_uidiv+0x82>
 800013e:	028b      	lsls	r3, r1, #10
 8000140:	1ac0      	subs	r0, r0, r3
 8000142:	4152      	adcs	r2, r2
 8000144:	0a43      	lsrs	r3, r0, #9
 8000146:	428b      	cmp	r3, r1
 8000148:	d301      	bcc.n	800014e <__aeabi_uidiv+0x8e>
 800014a:	024b      	lsls	r3, r1, #9
 800014c:	1ac0      	subs	r0, r0, r3
 800014e:	4152      	adcs	r2, r2
 8000150:	0a03      	lsrs	r3, r0, #8
 8000152:	428b      	cmp	r3, r1
 8000154:	d301      	bcc.n	800015a <__aeabi_uidiv+0x9a>
 8000156:	020b      	lsls	r3, r1, #8
 8000158:	1ac0      	subs	r0, r0, r3
 800015a:	4152      	adcs	r2, r2
 800015c:	d2cd      	bcs.n	80000fa <__aeabi_uidiv+0x3a>
 800015e:	09c3      	lsrs	r3, r0, #7
 8000160:	428b      	cmp	r3, r1
 8000162:	d301      	bcc.n	8000168 <__aeabi_uidiv+0xa8>
 8000164:	01cb      	lsls	r3, r1, #7
 8000166:	1ac0      	subs	r0, r0, r3
 8000168:	4152      	adcs	r2, r2
 800016a:	0983      	lsrs	r3, r0, #6
 800016c:	428b      	cmp	r3, r1
 800016e:	d301      	bcc.n	8000174 <__aeabi_uidiv+0xb4>
 8000170:	018b      	lsls	r3, r1, #6
 8000172:	1ac0      	subs	r0, r0, r3
 8000174:	4152      	adcs	r2, r2
 8000176:	0943      	lsrs	r3, r0, #5
 8000178:	428b      	cmp	r3, r1
 800017a:	d301      	bcc.n	8000180 <__aeabi_uidiv+0xc0>
 800017c:	014b      	lsls	r3, r1, #5
 800017e:	1ac0      	subs	r0, r0, r3
 8000180:	4152      	adcs	r2, r2
 8000182:	0903      	lsrs	r3, r0, #4
 8000184:	428b      	cmp	r3, r1
 8000186:	d301      	bcc.n	800018c <__aeabi_uidiv+0xcc>
 8000188:	010b      	lsls	r3, r1, #4
 800018a:	1ac0      	subs	r0, r0, r3
 800018c:	4152      	adcs	r2, r2
 800018e:	08c3      	lsrs	r3, r0, #3
 8000190:	428b      	cmp	r3, r1
 8000192:	d301      	bcc.n	8000198 <__aeabi_uidiv+0xd8>
 8000194:	00cb      	lsls	r3, r1, #3
 8000196:	1ac0      	subs	r0, r0, r3
 8000198:	4152      	adcs	r2, r2
 800019a:	0883      	lsrs	r3, r0, #2
 800019c:	428b      	cmp	r3, r1
 800019e:	d301      	bcc.n	80001a4 <__aeabi_uidiv+0xe4>
 80001a0:	008b      	lsls	r3, r1, #2
 80001a2:	1ac0      	subs	r0, r0, r3
 80001a4:	4152      	adcs	r2, r2
 80001a6:	0843      	lsrs	r3, r0, #1
 80001a8:	428b      	cmp	r3, r1
 80001aa:	d301      	bcc.n	80001b0 <__aeabi_uidiv+0xf0>
 80001ac:	004b      	lsls	r3, r1, #1
 80001ae:	1ac0      	subs	r0, r0, r3
 80001b0:	4152      	adcs	r2, r2
 80001b2:	1a41      	subs	r1, r0, r1
 80001b4:	d200      	bcs.n	80001b8 <__aeabi_uidiv+0xf8>
 80001b6:	4601      	mov	r1, r0
 80001b8:	4152      	adcs	r2, r2
 80001ba:	4610      	mov	r0, r2
 80001bc:	4770      	bx	lr
 80001be:	e7ff      	b.n	80001c0 <__aeabi_uidiv+0x100>
 80001c0:	b501      	push	{r0, lr}
 80001c2:	2000      	movs	r0, #0
 80001c4:	f000 f806 	bl	80001d4 <__aeabi_idiv0>
 80001c8:	bd02      	pop	{r1, pc}
 80001ca:	46c0      	nop			; (mov r8, r8)

080001cc <__aeabi_uidivmod>:
__aeabi_uidivmod():
 80001cc:	2900      	cmp	r1, #0
 80001ce:	d0f7      	beq.n	80001c0 <__aeabi_uidiv+0x100>
 80001d0:	e776      	b.n	80000c0 <__aeabi_uidiv>
 80001d2:	4770      	bx	lr

080001d4 <__aeabi_idiv0>:
__aeabi_idiv0():
 80001d4:	4770      	bx	lr
 80001d6:	46c0      	nop			; (mov r8, r8)

080001d8 <main>:
main():
C:\Users\Moritz\Dropbox\softwareprojekte\baremetal_stm32f042/main.c:12
volatile char str[] = "Hello!";

uint8_t data_array[] = {1,2,3,4,5}; 

int main(void)
{
 80001d8:	b580      	push	{r7, lr}
 80001da:	b084      	sub	sp, #16
 80001dc:	af00      	add	r7, sp, #0
C:\Users\Moritz\Dropbox\softwareprojekte\baremetal_stm32f042/main.c:15
	
	//check string functions from stdlib
	int len = strlen(str);
 80001de:	4b09      	ldr	r3, [pc, #36]	; (8000204 <main+0x2c>)
 80001e0:	0018      	movs	r0, r3
 80001e2:	f000 f9d9 	bl	8000598 <strlen>
 80001e6:	0003      	movs	r3, r0
 80001e8:	60fb      	str	r3, [r7, #12]
C:\Users\Moritz\Dropbox\softwareprojekte\baremetal_stm32f042/main.c:19

	uint8_t stack_array[sizeof(data_array)];
	
	if( len != sizeof(data_array) )
 80001ea:	68fb      	ldr	r3, [r7, #12]
 80001ec:	2b05      	cmp	r3, #5
 80001ee:	d001      	beq.n	80001f4 <main+0x1c>
C:\Users\Moritz\Dropbox\softwareprojekte\baremetal_stm32f042/main.c:21
	{
		len = sizeof(data_array);
 80001f0:	2305      	movs	r3, #5
 80001f2:	60fb      	str	r3, [r7, #12]
C:\Users\Moritz\Dropbox\softwareprojekte\baremetal_stm32f042/main.c:24
	}
	
	memcpy(stack_array, data_array, len);
 80001f4:	68fa      	ldr	r2, [r7, #12]
 80001f6:	4904      	ldr	r1, [pc, #16]	; (8000208 <main+0x30>)
 80001f8:	1d3b      	adds	r3, r7, #4
 80001fa:	0018      	movs	r0, r3
 80001fc:	f000 f98e 	bl	800051c <memcpy>
C:\Users\Moritz\Dropbox\softwareprojekte\baremetal_stm32f042/main.c:29 (discriminator 1)
	
	while(1)
	{
		// infinite loop
	}
 8000200:	e7fe      	b.n	8000200 <main+0x28>
 8000202:	46c0      	nop			; (mov r8, r8)
 8000204:	20000000 	andcs	r0, r0, r0
 8000208:	20000008 	andcs	r0, r0, r8

0800020c <SVC_Handler>:
SVC_Handler():
C:\Users\Moritz\Dropbox\softwareprojekte\baremetal_stm32f042/startup.c:81
   default_handler		//USB_IRQHandler        
};

//Cortex IRQs
void SVC_Handler(void)
{
 800020c:	b580      	push	{r7, lr}
 800020e:	af00      	add	r7, sp, #0
C:\Users\Moritz\Dropbox\softwareprojekte\baremetal_stm32f042/startup.c:83

}
 8000210:	46c0      	nop			; (mov r8, r8)
 8000212:	46bd      	mov	sp, r7
 8000214:	bd80      	pop	{r7, pc}
 8000216:	46c0      	nop			; (mov r8, r8)

08000218 <PendSV_Handler>:
PendSV_Handler():
C:\Users\Moritz\Dropbox\softwareprojekte\baremetal_stm32f042/startup.c:86

void PendSV_Handler(void)
{
 8000218:	b580      	push	{r7, lr}
 800021a:	af00      	add	r7, sp, #0
C:\Users\Moritz\Dropbox\softwareprojekte\baremetal_stm32f042/startup.c:88
	
}
 800021c:	46c0      	nop			; (mov r8, r8)
 800021e:	46bd      	mov	sp, r7
 8000220:	bd80      	pop	{r7, pc}
 8000222:	46c0      	nop			; (mov r8, r8)

08000224 <NMI_Handler>:
NMI_Handler():
C:\Users\Moritz\Dropbox\softwareprojekte\baremetal_stm32f042/startup.c:91

void NMI_Handler(void)
{
 8000224:	b580      	push	{r7, lr}
 8000226:	af00      	add	r7, sp, #0
C:\Users\Moritz\Dropbox\softwareprojekte\baremetal_stm32f042/startup.c:93
	
}
 8000228:	46c0      	nop			; (mov r8, r8)
 800022a:	46bd      	mov	sp, r7
 800022c:	bd80      	pop	{r7, pc}
 800022e:	46c0      	nop			; (mov r8, r8)

08000230 <Hardfault_Handler>:
Hardfault_Handler():
C:\Users\Moritz\Dropbox\softwareprojekte\baremetal_stm32f042/startup.c:96

void Hardfault_Handler(void)
{
 8000230:	b580      	push	{r7, lr}
 8000232:	af00      	add	r7, sp, #0
C:\Users\Moritz\Dropbox\softwareprojekte\baremetal_stm32f042/startup.c:97 (discriminator 1)
	while(1);
 8000234:	e7fe      	b.n	8000234 <Hardfault_Handler+0x4>
 8000236:	46c0      	nop			; (mov r8, r8)

08000238 <SysTick_Handler>:
SysTick_Handler():
C:\Users\Moritz\Dropbox\softwareprojekte\baremetal_stm32f042/startup.c:101
}

void SysTick_Handler(void)
{
 8000238:	b580      	push	{r7, lr}
 800023a:	af00      	add	r7, sp, #0
C:\Users\Moritz\Dropbox\softwareprojekte\baremetal_stm32f042/startup.c:103
	
}
 800023c:	46c0      	nop			; (mov r8, r8)
 800023e:	46bd      	mov	sp, r7
 8000240:	bd80      	pop	{r7, pc}
 8000242:	46c0      	nop			; (mov r8, r8)

08000244 <Reset_Handler>:
Reset_Handler():
C:\Users\Moritz\Dropbox\softwareprojekte\baremetal_stm32f042/startup.c:106

void Reset_Handler(void)
{
 8000244:	b580      	push	{r7, lr}
 8000246:	af00      	add	r7, sp, #0
C:\Users\Moritz\Dropbox\softwareprojekte\baremetal_stm32f042/startup.c:107
	copy_data();
 8000248:	f000 f810 	bl	800026c <copy_data>
C:\Users\Moritz\Dropbox\softwareprojekte\baremetal_stm32f042/startup.c:109
	
	bss_zero();
 800024c:	f000 f82e 	bl	80002ac <bss_zero>
C:\Users\Moritz\Dropbox\softwareprojekte\baremetal_stm32f042/startup.c:111
	
	SystemInit();
 8000250:	f000 f844 	bl	80002dc <SystemInit>
C:\Users\Moritz\Dropbox\softwareprojekte\baremetal_stm32f042/startup.c:114
	
	/*call main application entry point*/
	main();
 8000254:	f7ff ffc0 	bl	80001d8 <main>
C:\Users\Moritz\Dropbox\softwareprojekte\baremetal_stm32f042/startup.c:115
}
 8000258:	46c0      	nop			; (mov r8, r8)
 800025a:	46bd      	mov	sp, r7
 800025c:	bd80      	pop	{r7, pc}
 800025e:	46c0      	nop			; (mov r8, r8)

08000260 <default_handler>:
default_handler():
C:\Users\Moritz\Dropbox\softwareprojekte\baremetal_stm32f042/startup.c:119


void default_handler(void)
{
 8000260:	b580      	push	{r7, lr}
 8000262:	af00      	add	r7, sp, #0
C:\Users\Moritz\Dropbox\softwareprojekte\baremetal_stm32f042/startup.c:121
	
}
 8000264:	46c0      	nop			; (mov r8, r8)
 8000266:	46bd      	mov	sp, r7
 8000268:	bd80      	pop	{r7, pc}
 800026a:	46c0      	nop			; (mov r8, r8)

0800026c <copy_data>:
copy_data():
C:\Users\Moritz\Dropbox\softwareprojekte\baremetal_stm32f042/startup.c:126


/*system helpers*/
void copy_data(void)
{	
 800026c:	b580      	push	{r7, lr}
 800026e:	b082      	sub	sp, #8
 8000270:	af00      	add	r7, sp, #0
C:\Users\Moritz\Dropbox\softwareprojekte\baremetal_stm32f042/startup.c:130
	unsigned long* dest_p;
	unsigned long* src_p;
	
	src_p = &_rodata_start;
 8000272:	4b0b      	ldr	r3, [pc, #44]	; (80002a0 <copy_data+0x34>)
 8000274:	603b      	str	r3, [r7, #0]
C:\Users\Moritz\Dropbox\softwareprojekte\baremetal_stm32f042/startup.c:131
	for(dest_p = &_data_start; dest_p<=&_data_end; dest_p++)
 8000276:	4b0b      	ldr	r3, [pc, #44]	; (80002a4 <copy_data+0x38>)
 8000278:	607b      	str	r3, [r7, #4]
 800027a:	e008      	b.n	800028e <copy_data+0x22>
C:\Users\Moritz\Dropbox\softwareprojekte\baremetal_stm32f042/startup.c:133 (discriminator 3)
	{
		*dest_p = *src_p++;
 800027c:	683b      	ldr	r3, [r7, #0]
 800027e:	1d1a      	adds	r2, r3, #4
 8000280:	603a      	str	r2, [r7, #0]
 8000282:	681a      	ldr	r2, [r3, #0]
 8000284:	687b      	ldr	r3, [r7, #4]
 8000286:	601a      	str	r2, [r3, #0]
C:\Users\Moritz\Dropbox\softwareprojekte\baremetal_stm32f042/startup.c:131 (discriminator 3)
{	
	unsigned long* dest_p;
	unsigned long* src_p;
	
	src_p = &_rodata_start;
	for(dest_p = &_data_start; dest_p<=&_data_end; dest_p++)
 8000288:	687b      	ldr	r3, [r7, #4]
 800028a:	3304      	adds	r3, #4
 800028c:	607b      	str	r3, [r7, #4]
C:\Users\Moritz\Dropbox\softwareprojekte\baremetal_stm32f042/startup.c:131 (discriminator 1)
 800028e:	687a      	ldr	r2, [r7, #4]
 8000290:	4b05      	ldr	r3, [pc, #20]	; (80002a8 <copy_data+0x3c>)
 8000292:	429a      	cmp	r2, r3
 8000294:	d9f2      	bls.n	800027c <copy_data+0x10>
C:\Users\Moritz\Dropbox\softwareprojekte\baremetal_stm32f042/startup.c:135
	{
		*dest_p = *src_p++;
	}
}
 8000296:	46c0      	nop			; (mov r8, r8)
 8000298:	46bd      	mov	sp, r7
 800029a:	b002      	add	sp, #8
 800029c:	bd80      	pop	{r7, pc}
 800029e:	46c0      	nop			; (mov r8, r8)
 80002a0:	08000600 	stmdaeq	r0, {r9, sl}
 80002a4:	20000000 	andcs	r0, r0, r0
 80002a8:	20000024 	andcs	r0, r0, r4, lsr #32

080002ac <bss_zero>:
bss_zero():
C:\Users\Moritz\Dropbox\softwareprojekte\baremetal_stm32f042/startup.c:138

void bss_zero(void)
{
 80002ac:	b580      	push	{r7, lr}
 80002ae:	b082      	sub	sp, #8
 80002b0:	af00      	add	r7, sp, #0
C:\Users\Moritz\Dropbox\softwareprojekte\baremetal_stm32f042/startup.c:141
	unsigned long* dest_p;
	
	for(dest_p = &_bss_start; dest_p<=&_bss_end; dest_p++)
 80002b2:	4b08      	ldr	r3, [pc, #32]	; (80002d4 <bss_zero+0x28>)
 80002b4:	607b      	str	r3, [r7, #4]
 80002b6:	e005      	b.n	80002c4 <bss_zero+0x18>
C:\Users\Moritz\Dropbox\softwareprojekte\baremetal_stm32f042/startup.c:143 (discriminator 3)
	{
		*dest_p = 0U;
 80002b8:	687b      	ldr	r3, [r7, #4]
 80002ba:	2200      	movs	r2, #0
 80002bc:	601a      	str	r2, [r3, #0]
C:\Users\Moritz\Dropbox\softwareprojekte\baremetal_stm32f042/startup.c:141 (discriminator 3)

void bss_zero(void)
{
	unsigned long* dest_p;
	
	for(dest_p = &_bss_start; dest_p<=&_bss_end; dest_p++)
 80002be:	687b      	ldr	r3, [r7, #4]
 80002c0:	3304      	adds	r3, #4
 80002c2:	607b      	str	r3, [r7, #4]
C:\Users\Moritz\Dropbox\softwareprojekte\baremetal_stm32f042/startup.c:141 (discriminator 1)
 80002c4:	687a      	ldr	r2, [r7, #4]
 80002c6:	4b04      	ldr	r3, [pc, #16]	; (80002d8 <bss_zero+0x2c>)
 80002c8:	429a      	cmp	r2, r3
 80002ca:	d9f5      	bls.n	80002b8 <bss_zero+0xc>
C:\Users\Moritz\Dropbox\softwareprojekte\baremetal_stm32f042/startup.c:145
	{
		*dest_p = 0U;
	}
}
 80002cc:	46c0      	nop			; (mov r8, r8)
 80002ce:	46bd      	mov	sp, r7
 80002d0:	b002      	add	sp, #8
 80002d2:	bd80      	pop	{r7, pc}
 80002d4:	20000024 	andcs	r0, r0, r4, lsr #32
 80002d8:	20000024 	andcs	r0, r0, r4, lsr #32

080002dc <SystemInit>:
SystemInit():
C:\Users\Moritz\Dropbox\softwareprojekte\baremetal_stm32f042/system_stm32f0xx.c:160
  *         SystemCoreClock variable.
  * @param  None
  * @retval None
  */
void SystemInit (void)
{    
 80002dc:	b580      	push	{r7, lr}
 80002de:	af00      	add	r7, sp, #0
C:\Users\Moritz\Dropbox\softwareprojekte\baremetal_stm32f042/system_stm32f0xx.c:162
  /* Set HSION bit */
  RCC->CR |= (uint32_t)0x00000001;
 80002e0:	4b1b      	ldr	r3, [pc, #108]	; (8000350 <SystemInit+0x74>)
 80002e2:	4a1b      	ldr	r2, [pc, #108]	; (8000350 <SystemInit+0x74>)
 80002e4:	6812      	ldr	r2, [r2, #0]
 80002e6:	2101      	movs	r1, #1
 80002e8:	430a      	orrs	r2, r1
 80002ea:	601a      	str	r2, [r3, #0]
C:\Users\Moritz\Dropbox\softwareprojekte\baremetal_stm32f042/system_stm32f0xx.c:169
#if defined(STM32F051)  
  /* Reset SW[1:0], HPRE[3:0], PPRE[2:0], ADCPRE and MCOSEL[2:0] bits */
  RCC->CFGR &= (uint32_t)0xF8FFB80C;
#else
  /* Reset SW[1:0], HPRE[3:0], PPRE[2:0], ADCPRE, MCOSEL[2:0], MCOPRE[2:0] and PLLNODIV bits */
  RCC->CFGR &= (uint32_t)0x08FFB80C;
 80002ec:	4b18      	ldr	r3, [pc, #96]	; (8000350 <SystemInit+0x74>)
 80002ee:	4a18      	ldr	r2, [pc, #96]	; (8000350 <SystemInit+0x74>)
 80002f0:	6852      	ldr	r2, [r2, #4]
 80002f2:	4918      	ldr	r1, [pc, #96]	; (8000354 <SystemInit+0x78>)
 80002f4:	400a      	ands	r2, r1
 80002f6:	605a      	str	r2, [r3, #4]
C:\Users\Moritz\Dropbox\softwareprojekte\baremetal_stm32f042/system_stm32f0xx.c:173
#endif /* STM32F051 */
  
  /* Reset HSEON, CSSON and PLLON bits */
  RCC->CR &= (uint32_t)0xFEF6FFFF;
 80002f8:	4b15      	ldr	r3, [pc, #84]	; (8000350 <SystemInit+0x74>)
 80002fa:	4a15      	ldr	r2, [pc, #84]	; (8000350 <SystemInit+0x74>)
 80002fc:	6812      	ldr	r2, [r2, #0]
 80002fe:	4916      	ldr	r1, [pc, #88]	; (8000358 <SystemInit+0x7c>)
 8000300:	400a      	ands	r2, r1
 8000302:	601a      	str	r2, [r3, #0]
C:\Users\Moritz\Dropbox\softwareprojekte\baremetal_stm32f042/system_stm32f0xx.c:176

  /* Reset HSEBYP bit */
  RCC->CR &= (uint32_t)0xFFFBFFFF;
 8000304:	4b12      	ldr	r3, [pc, #72]	; (8000350 <SystemInit+0x74>)
 8000306:	4a12      	ldr	r2, [pc, #72]	; (8000350 <SystemInit+0x74>)
 8000308:	6812      	ldr	r2, [r2, #0]
 800030a:	4914      	ldr	r1, [pc, #80]	; (800035c <SystemInit+0x80>)
 800030c:	400a      	ands	r2, r1
 800030e:	601a      	str	r2, [r3, #0]
C:\Users\Moritz\Dropbox\softwareprojekte\baremetal_stm32f042/system_stm32f0xx.c:179

  /* Reset PLLSRC, PLLXTPRE and PLLMUL[3:0] bits */
  RCC->CFGR &= (uint32_t)0xFFC0FFFF;
 8000310:	4b0f      	ldr	r3, [pc, #60]	; (8000350 <SystemInit+0x74>)
 8000312:	4a0f      	ldr	r2, [pc, #60]	; (8000350 <SystemInit+0x74>)
 8000314:	6852      	ldr	r2, [r2, #4]
 8000316:	4912      	ldr	r1, [pc, #72]	; (8000360 <SystemInit+0x84>)
 8000318:	400a      	ands	r2, r1
 800031a:	605a      	str	r2, [r3, #4]
C:\Users\Moritz\Dropbox\softwareprojekte\baremetal_stm32f042/system_stm32f0xx.c:182

  /* Reset PREDIV1[3:0] bits */
  RCC->CFGR2 &= (uint32_t)0xFFFFFFF0;
 800031c:	4b0c      	ldr	r3, [pc, #48]	; (8000350 <SystemInit+0x74>)
 800031e:	4a0c      	ldr	r2, [pc, #48]	; (8000350 <SystemInit+0x74>)
 8000320:	6ad2      	ldr	r2, [r2, #44]	; 0x2c
 8000322:	210f      	movs	r1, #15
 8000324:	438a      	bics	r2, r1
 8000326:	62da      	str	r2, [r3, #44]	; 0x2c
C:\Users\Moritz\Dropbox\softwareprojekte\baremetal_stm32f042/system_stm32f0xx.c:185

  /* Reset USARTSW[1:0], I2CSW, CECSW and ADCSW bits */
  RCC->CFGR3 &= (uint32_t)0xFFFFFEAC;
 8000328:	4b09      	ldr	r3, [pc, #36]	; (8000350 <SystemInit+0x74>)
 800032a:	4a09      	ldr	r2, [pc, #36]	; (8000350 <SystemInit+0x74>)
 800032c:	6b12      	ldr	r2, [r2, #48]	; 0x30
 800032e:	490d      	ldr	r1, [pc, #52]	; (8000364 <SystemInit+0x88>)
 8000330:	400a      	ands	r2, r1
 8000332:	631a      	str	r2, [r3, #48]	; 0x30
C:\Users\Moritz\Dropbox\softwareprojekte\baremetal_stm32f042/system_stm32f0xx.c:188

  /* Reset HSI14 bit */
  RCC->CR2 &= (uint32_t)0xFFFFFFFE;
 8000334:	4b06      	ldr	r3, [pc, #24]	; (8000350 <SystemInit+0x74>)
 8000336:	4a06      	ldr	r2, [pc, #24]	; (8000350 <SystemInit+0x74>)
 8000338:	6b52      	ldr	r2, [r2, #52]	; 0x34
 800033a:	2101      	movs	r1, #1
 800033c:	438a      	bics	r2, r1
 800033e:	635a      	str	r2, [r3, #52]	; 0x34
C:\Users\Moritz\Dropbox\softwareprojekte\baremetal_stm32f042/system_stm32f0xx.c:191

  /* Disable all interrupts */
  RCC->CIR = 0x00000000;
 8000340:	4b03      	ldr	r3, [pc, #12]	; (8000350 <SystemInit+0x74>)
 8000342:	2200      	movs	r2, #0
 8000344:	609a      	str	r2, [r3, #8]
C:\Users\Moritz\Dropbox\softwareprojekte\baremetal_stm32f042/system_stm32f0xx.c:194

  /* Configure the System clock frequency, AHB/APBx prescalers and Flash settings */
  SetSysClock();
 8000346:	f000 f879 	bl	800043c <SetSysClock>
C:\Users\Moritz\Dropbox\softwareprojekte\baremetal_stm32f042/system_stm32f0xx.c:195
}
 800034a:	46c0      	nop			; (mov r8, r8)
 800034c:	46bd      	mov	sp, r7
 800034e:	bd80      	pop	{r7, pc}
 8000350:	40021000 	andmi	r1, r2, r0
 8000354:	08ffb80c 	ldmeq	pc!, {r2, r3, fp, ip, sp, pc}^	; <UNPREDICTABLE>
 8000358:	fef6ffff 	mrc2	15, 7, pc, cr6, cr15, {7}
 800035c:	fffbffff 			; <UNDEFINED> instruction: 0xfffbffff
 8000360:	ffc0ffff 			; <UNDEFINED> instruction: 0xffc0ffff
 8000364:	fffffeac 			; <UNDEFINED> instruction: 0xfffffeac

08000368 <SystemCoreClockUpdate>:
SystemCoreClockUpdate():
C:\Users\Moritz\Dropbox\softwareprojekte\baremetal_stm32f042/system_stm32f0xx.c:233
  *           value for HSE crystal.
  * @param  None
  * @retval None
  */
void SystemCoreClockUpdate (void)
{
 8000368:	b580      	push	{r7, lr}
 800036a:	b084      	sub	sp, #16
 800036c:	af00      	add	r7, sp, #0
C:\Users\Moritz\Dropbox\softwareprojekte\baremetal_stm32f042/system_stm32f0xx.c:234
  uint32_t tmp = 0, pllmull = 0, pllsource = 0, prediv1factor = 0;
 800036e:	2300      	movs	r3, #0
 8000370:	60fb      	str	r3, [r7, #12]
 8000372:	2300      	movs	r3, #0
 8000374:	60bb      	str	r3, [r7, #8]
 8000376:	2300      	movs	r3, #0
 8000378:	607b      	str	r3, [r7, #4]
 800037a:	2300      	movs	r3, #0
 800037c:	603b      	str	r3, [r7, #0]
C:\Users\Moritz\Dropbox\softwareprojekte\baremetal_stm32f042/system_stm32f0xx.c:237

  /* Get SYSCLK source -------------------------------------------------------*/
  tmp = RCC->CFGR & RCC_CFGR_SWS;
 800037e:	4b2a      	ldr	r3, [pc, #168]	; (8000428 <SystemCoreClockUpdate+0xc0>)
 8000380:	685b      	ldr	r3, [r3, #4]
 8000382:	220c      	movs	r2, #12
 8000384:	4013      	ands	r3, r2
 8000386:	60fb      	str	r3, [r7, #12]
C:\Users\Moritz\Dropbox\softwareprojekte\baremetal_stm32f042/system_stm32f0xx.c:239
  
  switch (tmp)
 8000388:	68fb      	ldr	r3, [r7, #12]
 800038a:	2b04      	cmp	r3, #4
 800038c:	d007      	beq.n	800039e <SystemCoreClockUpdate+0x36>
 800038e:	2b08      	cmp	r3, #8
 8000390:	d009      	beq.n	80003a6 <SystemCoreClockUpdate+0x3e>
 8000392:	2b00      	cmp	r3, #0
 8000394:	d131      	bne.n	80003fa <SystemCoreClockUpdate+0x92>
C:\Users\Moritz\Dropbox\softwareprojekte\baremetal_stm32f042/system_stm32f0xx.c:242
  {
    case 0x00:  /* HSI used as system clock */
      SystemCoreClock = HSI_VALUE;
 8000396:	4b25      	ldr	r3, [pc, #148]	; (800042c <SystemCoreClockUpdate+0xc4>)
 8000398:	4a25      	ldr	r2, [pc, #148]	; (8000430 <SystemCoreClockUpdate+0xc8>)
 800039a:	601a      	str	r2, [r3, #0]
C:\Users\Moritz\Dropbox\softwareprojekte\baremetal_stm32f042/system_stm32f0xx.c:243
      break;
 800039c:	e031      	b.n	8000402 <SystemCoreClockUpdate+0x9a>
C:\Users\Moritz\Dropbox\softwareprojekte\baremetal_stm32f042/system_stm32f0xx.c:245
    case 0x04:  /* HSE used as system clock */
      SystemCoreClock = HSE_VALUE;
 800039e:	4b23      	ldr	r3, [pc, #140]	; (800042c <SystemCoreClockUpdate+0xc4>)
 80003a0:	4a23      	ldr	r2, [pc, #140]	; (8000430 <SystemCoreClockUpdate+0xc8>)
 80003a2:	601a      	str	r2, [r3, #0]
C:\Users\Moritz\Dropbox\softwareprojekte\baremetal_stm32f042/system_stm32f0xx.c:246
      break;
 80003a4:	e02d      	b.n	8000402 <SystemCoreClockUpdate+0x9a>
C:\Users\Moritz\Dropbox\softwareprojekte\baremetal_stm32f042/system_stm32f0xx.c:249
    case 0x08:  /* PLL used as system clock */
      /* Get PLL clock source and multiplication factor ----------------------*/
      pllmull = RCC->CFGR & RCC_CFGR_PLLMULL;
 80003a6:	4b20      	ldr	r3, [pc, #128]	; (8000428 <SystemCoreClockUpdate+0xc0>)
 80003a8:	685a      	ldr	r2, [r3, #4]
 80003aa:	23f0      	movs	r3, #240	; 0xf0
 80003ac:	039b      	lsls	r3, r3, #14
 80003ae:	4013      	ands	r3, r2
 80003b0:	60bb      	str	r3, [r7, #8]
C:\Users\Moritz\Dropbox\softwareprojekte\baremetal_stm32f042/system_stm32f0xx.c:250
      pllsource = RCC->CFGR & RCC_CFGR_PLLSRC;
 80003b2:	4b1d      	ldr	r3, [pc, #116]	; (8000428 <SystemCoreClockUpdate+0xc0>)
 80003b4:	685a      	ldr	r2, [r3, #4]
 80003b6:	23c0      	movs	r3, #192	; 0xc0
 80003b8:	025b      	lsls	r3, r3, #9
 80003ba:	4013      	ands	r3, r2
 80003bc:	607b      	str	r3, [r7, #4]
C:\Users\Moritz\Dropbox\softwareprojekte\baremetal_stm32f042/system_stm32f0xx.c:251
      pllmull = ( pllmull >> 18) + 2;
 80003be:	68bb      	ldr	r3, [r7, #8]
 80003c0:	0c9b      	lsrs	r3, r3, #18
 80003c2:	3302      	adds	r3, #2
 80003c4:	60bb      	str	r3, [r7, #8]
C:\Users\Moritz\Dropbox\softwareprojekte\baremetal_stm32f042/system_stm32f0xx.c:253
      
      if (pllsource == 0x00)
 80003c6:	687b      	ldr	r3, [r7, #4]
 80003c8:	2b00      	cmp	r3, #0
 80003ca:	d105      	bne.n	80003d8 <SystemCoreClockUpdate+0x70>
C:\Users\Moritz\Dropbox\softwareprojekte\baremetal_stm32f042/system_stm32f0xx.c:256
      {
        /* HSI oscillator clock divided by 2 selected as PLL clock entry */
        SystemCoreClock = (HSI_VALUE >> 1) * pllmull;
 80003cc:	68bb      	ldr	r3, [r7, #8]
 80003ce:	4a19      	ldr	r2, [pc, #100]	; (8000434 <SystemCoreClockUpdate+0xcc>)
 80003d0:	435a      	muls	r2, r3
 80003d2:	4b16      	ldr	r3, [pc, #88]	; (800042c <SystemCoreClockUpdate+0xc4>)
 80003d4:	601a      	str	r2, [r3, #0]
C:\Users\Moritz\Dropbox\softwareprojekte\baremetal_stm32f042/system_stm32f0xx.c:264
      {
        prediv1factor = (RCC->CFGR2 & RCC_CFGR2_PREDIV1) + 1;
        /* HSE oscillator clock selected as PREDIV1 clock entry */
        SystemCoreClock = (HSE_VALUE / prediv1factor) * pllmull; 
      }      
      break;
 80003d6:	e014      	b.n	8000402 <SystemCoreClockUpdate+0x9a>
C:\Users\Moritz\Dropbox\softwareprojekte\baremetal_stm32f042/system_stm32f0xx.c:260
        /* HSI oscillator clock divided by 2 selected as PLL clock entry */
        SystemCoreClock = (HSI_VALUE >> 1) * pllmull;
      }
      else
      {
        prediv1factor = (RCC->CFGR2 & RCC_CFGR2_PREDIV1) + 1;
 80003d8:	4b13      	ldr	r3, [pc, #76]	; (8000428 <SystemCoreClockUpdate+0xc0>)
 80003da:	6adb      	ldr	r3, [r3, #44]	; 0x2c
 80003dc:	220f      	movs	r2, #15
 80003de:	4013      	ands	r3, r2
 80003e0:	3301      	adds	r3, #1
 80003e2:	603b      	str	r3, [r7, #0]
C:\Users\Moritz\Dropbox\softwareprojekte\baremetal_stm32f042/system_stm32f0xx.c:262
        /* HSE oscillator clock selected as PREDIV1 clock entry */
        SystemCoreClock = (HSE_VALUE / prediv1factor) * pllmull; 
 80003e4:	6839      	ldr	r1, [r7, #0]
 80003e6:	4812      	ldr	r0, [pc, #72]	; (8000430 <SystemCoreClockUpdate+0xc8>)
 80003e8:	f7ff fe6a 	bl	80000c0 <__aeabi_uidiv>
 80003ec:	0003      	movs	r3, r0
 80003ee:	001a      	movs	r2, r3
 80003f0:	68bb      	ldr	r3, [r7, #8]
 80003f2:	435a      	muls	r2, r3
 80003f4:	4b0d      	ldr	r3, [pc, #52]	; (800042c <SystemCoreClockUpdate+0xc4>)
 80003f6:	601a      	str	r2, [r3, #0]
C:\Users\Moritz\Dropbox\softwareprojekte\baremetal_stm32f042/system_stm32f0xx.c:264
      }      
      break;
 80003f8:	e003      	b.n	8000402 <SystemCoreClockUpdate+0x9a>
C:\Users\Moritz\Dropbox\softwareprojekte\baremetal_stm32f042/system_stm32f0xx.c:266
    default: /* HSI used as system clock */
      SystemCoreClock = HSI_VALUE;
 80003fa:	4b0c      	ldr	r3, [pc, #48]	; (800042c <SystemCoreClockUpdate+0xc4>)
 80003fc:	4a0c      	ldr	r2, [pc, #48]	; (8000430 <SystemCoreClockUpdate+0xc8>)
 80003fe:	601a      	str	r2, [r3, #0]
C:\Users\Moritz\Dropbox\softwareprojekte\baremetal_stm32f042/system_stm32f0xx.c:267
      break;
 8000400:	46c0      	nop			; (mov r8, r8)
C:\Users\Moritz\Dropbox\softwareprojekte\baremetal_stm32f042/system_stm32f0xx.c:271
  }
  /* Compute HCLK clock frequency ----------------*/
  /* Get HCLK prescaler */
  tmp = AHBPrescTable[((RCC->CFGR & RCC_CFGR_HPRE) >> 4)];
 8000402:	4b09      	ldr	r3, [pc, #36]	; (8000428 <SystemCoreClockUpdate+0xc0>)
 8000404:	685b      	ldr	r3, [r3, #4]
 8000406:	22f0      	movs	r2, #240	; 0xf0
 8000408:	4013      	ands	r3, r2
 800040a:	091b      	lsrs	r3, r3, #4
 800040c:	4a0a      	ldr	r2, [pc, #40]	; (8000438 <SystemCoreClockUpdate+0xd0>)
 800040e:	5cd3      	ldrb	r3, [r2, r3]
 8000410:	b2db      	uxtb	r3, r3
 8000412:	60fb      	str	r3, [r7, #12]
C:\Users\Moritz\Dropbox\softwareprojekte\baremetal_stm32f042/system_stm32f0xx.c:273
  /* HCLK clock frequency */
  SystemCoreClock >>= tmp;  
 8000414:	4b05      	ldr	r3, [pc, #20]	; (800042c <SystemCoreClockUpdate+0xc4>)
 8000416:	681a      	ldr	r2, [r3, #0]
 8000418:	68fb      	ldr	r3, [r7, #12]
 800041a:	40da      	lsrs	r2, r3
 800041c:	4b03      	ldr	r3, [pc, #12]	; (800042c <SystemCoreClockUpdate+0xc4>)
 800041e:	601a      	str	r2, [r3, #0]
C:\Users\Moritz\Dropbox\softwareprojekte\baremetal_stm32f042/system_stm32f0xx.c:274
}
 8000420:	46c0      	nop			; (mov r8, r8)
 8000422:	46bd      	mov	sp, r7
 8000424:	b004      	add	sp, #16
 8000426:	bd80      	pop	{r7, pc}
 8000428:	40021000 	andmi	r1, r2, r0
 800042c:	20000010 	andcs	r0, r0, r0, lsl r0
 8000430:	007a1200 	rsbseq	r1, sl, r0, lsl #4
 8000434:	003d0900 	eorseq	r0, sp, r0, lsl #18
 8000438:	20000014 	andcs	r0, r0, r4, lsl r0

0800043c <SetSysClock>:
SetSysClock():
C:\Users\Moritz\Dropbox\softwareprojekte\baremetal_stm32f042/system_stm32f0xx.c:285
  *         is reset to the default reset state (done in SystemInit() function).
  * @param  None
  * @retval None
  */
static void SetSysClock(void)
{
 800043c:	b580      	push	{r7, lr}
 800043e:	b082      	sub	sp, #8
 8000440:	af00      	add	r7, sp, #0
C:\Users\Moritz\Dropbox\softwareprojekte\baremetal_stm32f042/system_stm32f0xx.c:286
  __IO uint32_t StartUpCounter = 0, HSEStatus = 0;
 8000442:	2300      	movs	r3, #0
 8000444:	607b      	str	r3, [r7, #4]
 8000446:	2300      	movs	r3, #0
 8000448:	603b      	str	r3, [r7, #0]
C:\Users\Moritz\Dropbox\softwareprojekte\baremetal_stm32f042/system_stm32f0xx.c:290
  
  /* SYSCLK, HCLK, PCLK configuration ----------------------------------------*/
  /* Enable HSE */    
  RCC->CR |= ((uint32_t)RCC_CR_HSEON);
 800044a:	4b31      	ldr	r3, [pc, #196]	; (8000510 <SetSysClock+0xd4>)
 800044c:	4a30      	ldr	r2, [pc, #192]	; (8000510 <SetSysClock+0xd4>)
 800044e:	6812      	ldr	r2, [r2, #0]
 8000450:	2180      	movs	r1, #128	; 0x80
 8000452:	0249      	lsls	r1, r1, #9
 8000454:	430a      	orrs	r2, r1
 8000456:	601a      	str	r2, [r3, #0]
C:\Users\Moritz\Dropbox\softwareprojekte\baremetal_stm32f042/system_stm32f0xx.c:295 (discriminator 2)
 
  /* Wait till HSE is ready and if Time out is reached exit */
  do
  {
    HSEStatus = RCC->CR & RCC_CR_HSERDY;
 8000458:	4b2d      	ldr	r3, [pc, #180]	; (8000510 <SetSysClock+0xd4>)
 800045a:	681a      	ldr	r2, [r3, #0]
 800045c:	2380      	movs	r3, #128	; 0x80
 800045e:	029b      	lsls	r3, r3, #10
 8000460:	4013      	ands	r3, r2
 8000462:	603b      	str	r3, [r7, #0]
C:\Users\Moritz\Dropbox\softwareprojekte\baremetal_stm32f042/system_stm32f0xx.c:296 (discriminator 2)
    StartUpCounter++;  
 8000464:	687b      	ldr	r3, [r7, #4]
 8000466:	3301      	adds	r3, #1
 8000468:	607b      	str	r3, [r7, #4]
C:\Users\Moritz\Dropbox\softwareprojekte\baremetal_stm32f042/system_stm32f0xx.c:297 (discriminator 2)
  } while((HSEStatus == 0) && (StartUpCounter != HSE_STARTUP_TIMEOUT));
 800046a:	683b      	ldr	r3, [r7, #0]
 800046c:	2b00      	cmp	r3, #0
 800046e:	d104      	bne.n	800047a <SetSysClock+0x3e>
C:\Users\Moritz\Dropbox\softwareprojekte\baremetal_stm32f042/system_stm32f0xx.c:297 (discriminator 1)
 8000470:	687a      	ldr	r2, [r7, #4]
 8000472:	23a0      	movs	r3, #160	; 0xa0
 8000474:	01db      	lsls	r3, r3, #7
 8000476:	429a      	cmp	r2, r3
 8000478:	d1ee      	bne.n	8000458 <SetSysClock+0x1c>
C:\Users\Moritz\Dropbox\softwareprojekte\baremetal_stm32f042/system_stm32f0xx.c:299

  if ((RCC->CR & RCC_CR_HSERDY) != RESET)
 800047a:	4b25      	ldr	r3, [pc, #148]	; (8000510 <SetSysClock+0xd4>)
 800047c:	681a      	ldr	r2, [r3, #0]
 800047e:	2380      	movs	r3, #128	; 0x80
 8000480:	029b      	lsls	r3, r3, #10
 8000482:	4013      	ands	r3, r2
 8000484:	d002      	beq.n	800048c <SetSysClock+0x50>
C:\Users\Moritz\Dropbox\softwareprojekte\baremetal_stm32f042/system_stm32f0xx.c:301
  {
    HSEStatus = (uint32_t)0x01;
 8000486:	2301      	movs	r3, #1
 8000488:	603b      	str	r3, [r7, #0]
 800048a:	e001      	b.n	8000490 <SetSysClock+0x54>
C:\Users\Moritz\Dropbox\softwareprojekte\baremetal_stm32f042/system_stm32f0xx.c:305
  }
  else
  {
    HSEStatus = (uint32_t)0x00;
 800048c:	2300      	movs	r3, #0
 800048e:	603b      	str	r3, [r7, #0]
C:\Users\Moritz\Dropbox\softwareprojekte\baremetal_stm32f042/system_stm32f0xx.c:308
  }  

  if (HSEStatus == (uint32_t)0x01)
 8000490:	683b      	ldr	r3, [r7, #0]
 8000492:	2b01      	cmp	r3, #1
 8000494:	d138      	bne.n	8000508 <SetSysClock+0xcc>
C:\Users\Moritz\Dropbox\softwareprojekte\baremetal_stm32f042/system_stm32f0xx.c:311
  {
    /* Enable Prefetch Buffer and set Flash Latency */
    FLASH->ACR = FLASH_ACR_PRFTBE | FLASH_ACR_LATENCY;
 8000496:	4b1f      	ldr	r3, [pc, #124]	; (8000514 <SetSysClock+0xd8>)
 8000498:	2211      	movs	r2, #17
 800049a:	601a      	str	r2, [r3, #0]
C:\Users\Moritz\Dropbox\softwareprojekte\baremetal_stm32f042/system_stm32f0xx.c:314
 
    /* HCLK = SYSCLK */
    RCC->CFGR |= (uint32_t)RCC_CFGR_HPRE_DIV1;
 800049c:	4b1c      	ldr	r3, [pc, #112]	; (8000510 <SetSysClock+0xd4>)
 800049e:	4a1c      	ldr	r2, [pc, #112]	; (8000510 <SetSysClock+0xd4>)
 80004a0:	6852      	ldr	r2, [r2, #4]
 80004a2:	605a      	str	r2, [r3, #4]
C:\Users\Moritz\Dropbox\softwareprojekte\baremetal_stm32f042/system_stm32f0xx.c:317
      
    /* PCLK = HCLK */
    RCC->CFGR |= (uint32_t)RCC_CFGR_PPRE_DIV1;
 80004a4:	4b1a      	ldr	r3, [pc, #104]	; (8000510 <SetSysClock+0xd4>)
 80004a6:	4a1a      	ldr	r2, [pc, #104]	; (8000510 <SetSysClock+0xd4>)
 80004a8:	6852      	ldr	r2, [r2, #4]
 80004aa:	605a      	str	r2, [r3, #4]
C:\Users\Moritz\Dropbox\softwareprojekte\baremetal_stm32f042/system_stm32f0xx.c:320

    /* PLL configuration = HSE * 6 = 48 MHz */
    RCC->CFGR &= (uint32_t)((uint32_t)~(RCC_CFGR_PLLSRC | RCC_CFGR_PLLXTPRE | RCC_CFGR_PLLMULL));
 80004ac:	4b18      	ldr	r3, [pc, #96]	; (8000510 <SetSysClock+0xd4>)
 80004ae:	4a18      	ldr	r2, [pc, #96]	; (8000510 <SetSysClock+0xd4>)
 80004b0:	6852      	ldr	r2, [r2, #4]
 80004b2:	4919      	ldr	r1, [pc, #100]	; (8000518 <SetSysClock+0xdc>)
 80004b4:	400a      	ands	r2, r1
 80004b6:	605a      	str	r2, [r3, #4]
C:\Users\Moritz\Dropbox\softwareprojekte\baremetal_stm32f042/system_stm32f0xx.c:321
    RCC->CFGR |= (uint32_t)(RCC_CFGR_PLLSRC_PREDIV1 | RCC_CFGR_PLLXTPRE_PREDIV1 | RCC_CFGR_PLLMULL6);
 80004b8:	4b15      	ldr	r3, [pc, #84]	; (8000510 <SetSysClock+0xd4>)
 80004ba:	4a15      	ldr	r2, [pc, #84]	; (8000510 <SetSysClock+0xd4>)
 80004bc:	6852      	ldr	r2, [r2, #4]
 80004be:	2188      	movs	r1, #136	; 0x88
 80004c0:	0349      	lsls	r1, r1, #13
 80004c2:	430a      	orrs	r2, r1
 80004c4:	605a      	str	r2, [r3, #4]
C:\Users\Moritz\Dropbox\softwareprojekte\baremetal_stm32f042/system_stm32f0xx.c:324
            
    /* Enable PLL */
    RCC->CR |= RCC_CR_PLLON;
 80004c6:	4b12      	ldr	r3, [pc, #72]	; (8000510 <SetSysClock+0xd4>)
 80004c8:	4a11      	ldr	r2, [pc, #68]	; (8000510 <SetSysClock+0xd4>)
 80004ca:	6812      	ldr	r2, [r2, #0]
 80004cc:	2180      	movs	r1, #128	; 0x80
 80004ce:	0449      	lsls	r1, r1, #17
 80004d0:	430a      	orrs	r2, r1
 80004d2:	601a      	str	r2, [r3, #0]
C:\Users\Moritz\Dropbox\softwareprojekte\baremetal_stm32f042/system_stm32f0xx.c:327

    /* Wait till PLL is ready */
    while((RCC->CR & RCC_CR_PLLRDY) == 0)
 80004d4:	46c0      	nop			; (mov r8, r8)
C:\Users\Moritz\Dropbox\softwareprojekte\baremetal_stm32f042/system_stm32f0xx.c:327 (discriminator 1)
 80004d6:	4b0e      	ldr	r3, [pc, #56]	; (8000510 <SetSysClock+0xd4>)
 80004d8:	681a      	ldr	r2, [r3, #0]
 80004da:	2380      	movs	r3, #128	; 0x80
 80004dc:	049b      	lsls	r3, r3, #18
 80004de:	4013      	ands	r3, r2
 80004e0:	d0f9      	beq.n	80004d6 <SetSysClock+0x9a>
C:\Users\Moritz\Dropbox\softwareprojekte\baremetal_stm32f042/system_stm32f0xx.c:332
    {
    }

    /* Select PLL as system clock source */
    RCC->CFGR &= (uint32_t)((uint32_t)~(RCC_CFGR_SW));
 80004e2:	4b0b      	ldr	r3, [pc, #44]	; (8000510 <SetSysClock+0xd4>)
 80004e4:	4a0a      	ldr	r2, [pc, #40]	; (8000510 <SetSysClock+0xd4>)
 80004e6:	6852      	ldr	r2, [r2, #4]
 80004e8:	2103      	movs	r1, #3
 80004ea:	438a      	bics	r2, r1
 80004ec:	605a      	str	r2, [r3, #4]
C:\Users\Moritz\Dropbox\softwareprojekte\baremetal_stm32f042/system_stm32f0xx.c:333
    RCC->CFGR |= (uint32_t)RCC_CFGR_SW_PLL;    
 80004ee:	4b08      	ldr	r3, [pc, #32]	; (8000510 <SetSysClock+0xd4>)
 80004f0:	4a07      	ldr	r2, [pc, #28]	; (8000510 <SetSysClock+0xd4>)
 80004f2:	6852      	ldr	r2, [r2, #4]
 80004f4:	2102      	movs	r1, #2
 80004f6:	430a      	orrs	r2, r1
 80004f8:	605a      	str	r2, [r3, #4]
C:\Users\Moritz\Dropbox\softwareprojekte\baremetal_stm32f042/system_stm32f0xx.c:336

    /* Wait till PLL is used as system clock source */
    while ((RCC->CFGR & (uint32_t)RCC_CFGR_SWS) != (uint32_t)RCC_CFGR_SWS_PLL)
 80004fa:	46c0      	nop			; (mov r8, r8)
C:\Users\Moritz\Dropbox\softwareprojekte\baremetal_stm32f042/system_stm32f0xx.c:336 (discriminator 1)
 80004fc:	4b04      	ldr	r3, [pc, #16]	; (8000510 <SetSysClock+0xd4>)
 80004fe:	685b      	ldr	r3, [r3, #4]
 8000500:	220c      	movs	r2, #12
 8000502:	4013      	ands	r3, r2
 8000504:	2b08      	cmp	r3, #8
 8000506:	d1f9      	bne.n	80004fc <SetSysClock+0xc0>
C:\Users\Moritz\Dropbox\softwareprojekte\baremetal_stm32f042/system_stm32f0xx.c:344
  }
  else
  { /* If HSE fails to start-up, the application will have wrong clock 
         configuration. User can add here some code to deal with this error */
  }  
}
 8000508:	46c0      	nop			; (mov r8, r8)
 800050a:	46bd      	mov	sp, r7
 800050c:	b002      	add	sp, #8
 800050e:	bd80      	pop	{r7, pc}
 8000510:	40021000 	andmi	r1, r2, r0
 8000514:	40022000 	andmi	r2, r2, r0
 8000518:	ffc07fff 			; <UNDEFINED> instruction: 0xffc07fff

0800051c <memcpy>:
memcpy():
 800051c:	b570      	push	{r4, r5, r6, lr}
 800051e:	2a0f      	cmp	r2, #15
 8000520:	d932      	bls.n	8000588 <memcpy+0x6c>
 8000522:	000c      	movs	r4, r1
 8000524:	4304      	orrs	r4, r0
 8000526:	000b      	movs	r3, r1
 8000528:	07a4      	lsls	r4, r4, #30
 800052a:	d131      	bne.n	8000590 <memcpy+0x74>
 800052c:	0015      	movs	r5, r2
 800052e:	0004      	movs	r4, r0
 8000530:	3d10      	subs	r5, #16
 8000532:	092d      	lsrs	r5, r5, #4
 8000534:	3501      	adds	r5, #1
 8000536:	012d      	lsls	r5, r5, #4
 8000538:	1949      	adds	r1, r1, r5
 800053a:	681e      	ldr	r6, [r3, #0]
 800053c:	6026      	str	r6, [r4, #0]
 800053e:	685e      	ldr	r6, [r3, #4]
 8000540:	6066      	str	r6, [r4, #4]
 8000542:	689e      	ldr	r6, [r3, #8]
 8000544:	60a6      	str	r6, [r4, #8]
 8000546:	68de      	ldr	r6, [r3, #12]
 8000548:	3310      	adds	r3, #16
 800054a:	60e6      	str	r6, [r4, #12]
 800054c:	3410      	adds	r4, #16
 800054e:	4299      	cmp	r1, r3
 8000550:	d1f3      	bne.n	800053a <memcpy+0x1e>
 8000552:	230f      	movs	r3, #15
 8000554:	1945      	adds	r5, r0, r5
 8000556:	4013      	ands	r3, r2
 8000558:	2b03      	cmp	r3, #3
 800055a:	d91b      	bls.n	8000594 <memcpy+0x78>
 800055c:	1f1c      	subs	r4, r3, #4
 800055e:	2300      	movs	r3, #0
 8000560:	08a4      	lsrs	r4, r4, #2
 8000562:	3401      	adds	r4, #1
 8000564:	00a4      	lsls	r4, r4, #2
 8000566:	58ce      	ldr	r6, [r1, r3]
 8000568:	50ee      	str	r6, [r5, r3]
 800056a:	3304      	adds	r3, #4
 800056c:	429c      	cmp	r4, r3
 800056e:	d1fa      	bne.n	8000566 <memcpy+0x4a>
 8000570:	2303      	movs	r3, #3
 8000572:	192d      	adds	r5, r5, r4
 8000574:	1909      	adds	r1, r1, r4
 8000576:	401a      	ands	r2, r3
 8000578:	d005      	beq.n	8000586 <memcpy+0x6a>
 800057a:	2300      	movs	r3, #0
 800057c:	5ccc      	ldrb	r4, [r1, r3]
 800057e:	54ec      	strb	r4, [r5, r3]
 8000580:	3301      	adds	r3, #1
 8000582:	429a      	cmp	r2, r3
 8000584:	d1fa      	bne.n	800057c <memcpy+0x60>
 8000586:	bd70      	pop	{r4, r5, r6, pc}
 8000588:	0005      	movs	r5, r0
 800058a:	2a00      	cmp	r2, #0
 800058c:	d1f5      	bne.n	800057a <memcpy+0x5e>
 800058e:	e7fa      	b.n	8000586 <memcpy+0x6a>
 8000590:	0005      	movs	r5, r0
 8000592:	e7f2      	b.n	800057a <memcpy+0x5e>
 8000594:	001a      	movs	r2, r3
 8000596:	e7f8      	b.n	800058a <memcpy+0x6e>

08000598 <strlen>:
strlen():
 8000598:	b510      	push	{r4, lr}
 800059a:	0783      	lsls	r3, r0, #30
 800059c:	d027      	beq.n	80005ee <strlen+0x56>
 800059e:	7803      	ldrb	r3, [r0, #0]
 80005a0:	2b00      	cmp	r3, #0
 80005a2:	d026      	beq.n	80005f2 <strlen+0x5a>
 80005a4:	0003      	movs	r3, r0
 80005a6:	2103      	movs	r1, #3
 80005a8:	e002      	b.n	80005b0 <strlen+0x18>
 80005aa:	781a      	ldrb	r2, [r3, #0]
 80005ac:	2a00      	cmp	r2, #0
 80005ae:	d01c      	beq.n	80005ea <strlen+0x52>
 80005b0:	3301      	adds	r3, #1
 80005b2:	420b      	tst	r3, r1
 80005b4:	d1f9      	bne.n	80005aa <strlen+0x12>
 80005b6:	6819      	ldr	r1, [r3, #0]
 80005b8:	4a0f      	ldr	r2, [pc, #60]	; (80005f8 <strlen+0x60>)
 80005ba:	4c10      	ldr	r4, [pc, #64]	; (80005fc <strlen+0x64>)
 80005bc:	188a      	adds	r2, r1, r2
 80005be:	438a      	bics	r2, r1
 80005c0:	4222      	tst	r2, r4
 80005c2:	d10f      	bne.n	80005e4 <strlen+0x4c>
 80005c4:	3304      	adds	r3, #4
 80005c6:	6819      	ldr	r1, [r3, #0]
 80005c8:	4a0b      	ldr	r2, [pc, #44]	; (80005f8 <strlen+0x60>)
 80005ca:	188a      	adds	r2, r1, r2
 80005cc:	438a      	bics	r2, r1
 80005ce:	4222      	tst	r2, r4
 80005d0:	d108      	bne.n	80005e4 <strlen+0x4c>
 80005d2:	3304      	adds	r3, #4
 80005d4:	6819      	ldr	r1, [r3, #0]
 80005d6:	4a08      	ldr	r2, [pc, #32]	; (80005f8 <strlen+0x60>)
 80005d8:	188a      	adds	r2, r1, r2
 80005da:	438a      	bics	r2, r1
 80005dc:	4222      	tst	r2, r4
 80005de:	d0f1      	beq.n	80005c4 <strlen+0x2c>
 80005e0:	e000      	b.n	80005e4 <strlen+0x4c>
 80005e2:	3301      	adds	r3, #1
 80005e4:	781a      	ldrb	r2, [r3, #0]
 80005e6:	2a00      	cmp	r2, #0
 80005e8:	d1fb      	bne.n	80005e2 <strlen+0x4a>
 80005ea:	1a18      	subs	r0, r3, r0
 80005ec:	bd10      	pop	{r4, pc}
 80005ee:	0003      	movs	r3, r0
 80005f0:	e7e1      	b.n	80005b6 <strlen+0x1e>
 80005f2:	2000      	movs	r0, #0
 80005f4:	e7fa      	b.n	80005ec <strlen+0x54>
 80005f6:	46c0      	nop			; (mov r8, r8)
 80005f8:	fefefeff 	mrc2	14, 7, pc, cr14, cr15, {7}
 80005fc:	80808080 	addhi	r8, r0, r0, lsl #1

Disassembly of section .data:

20000000 <_data_start>:
_data_start():
20000000:	6c6c6548 	cfstr64vs	mvdx6, [ip], #-288	; 0xfffffee0
20000004:	0000216f 	andeq	r2, r0, pc, ror #2

20000008 <data_array>:
20000008:	04030201 	streq	r0, [r3], #-513	; 0xfffffdff
2000000c:	00000005 	andeq	r0, r0, r5

20000010 <SystemCoreClock>:
20000010:	02dc6c00 	sbcseq	r6, ip, #0, 24

20000014 <AHBPrescTable>:
	...
2000001c:	04030201 	streq	r0, [r3], #-513	; 0xfffffdff
20000020:	09080706 	stmdbeq	r8, {r1, r2, r8, r9, sl}

Disassembly of section ._user_heap_stack:

20000024 <._user_heap_stack>:
	...

Disassembly of section .ARM.attributes:

00000000 <.ARM.attributes>:
   0:	00003041 	andeq	r3, r0, r1, asr #32
   4:	61656100 	cmnvs	r5, r0, lsl #2
   8:	01006962 	tsteq	r0, r2, ror #18
   c:	00000026 	andeq	r0, r0, r6, lsr #32
  10:	726f4305 	rsbvc	r4, pc, #335544320	; 0x14000000
  14:	2d786574 	cfldr64cs	mvdx6, [r8, #-464]!	; 0xfffffe30
  18:	0600304d 	streq	r3, [r0], -sp, asr #32
  1c:	094d070c 	stmdbeq	sp, {r2, r3, r8, r9, sl}^
  20:	14041201 	strne	r1, [r4], #-513	; 0xfffffdff
  24:	17011501 	strne	r1, [r1, -r1, lsl #10]
  28:	19011803 	stmdbne	r1, {r0, r1, fp, ip}
  2c:	1e011a01 	vmlane.f32	s2, s2, s2
  30:	Address 0x00000030 is out of bounds.


Disassembly of section .debug_info:

00000000 <.debug_info>:
   0:	0000010e 	andeq	r0, r0, lr, lsl #2
   4:	00000004 	andeq	r0, r0, r4
   8:	01040000 	mrseq	r0, (UNDEF: 4)
   c:	0000004d 	andeq	r0, r0, sp, asr #32
  10:	00000e0c 	andeq	r0, r0, ip, lsl #28
  14:	0000ed00 	andeq	lr, r0, r0, lsl #26
	...
  24:	06010200 	streq	r0, [r1], -r0, lsl #4
  28:	0000012c 	andeq	r0, r0, ip, lsr #2
  2c:	00004303 	andeq	r4, r0, r3, lsl #6
  30:	371d0200 	ldrcc	r0, [sp, -r0, lsl #4]
  34:	02000000 	andeq	r0, r0, #0
  38:	012a0801 			; <UNDEFINED> instruction: 0x012a0801
  3c:	02020000 	andeq	r0, r2, #0
  40:	00015005 	andeq	r5, r1, r5
  44:	07020200 	streq	r0, [r2, -r0, lsl #4]
  48:	00000138 	andeq	r0, r0, r8, lsr r1
  4c:	05050402 	streq	r0, [r5, #-1026]	; 0xfffffbfe
  50:	02000000 	andeq	r0, r0, #0
  54:	00310704 	eorseq	r0, r1, r4, lsl #14
  58:	08020000 	stmdaeq	r2, {}	; <UNPREDICTABLE>
  5c:	00000005 	andeq	r0, r0, r5
  60:	07080200 	streq	r0, [r8, -r0, lsl #4]
  64:	0000002c 	andeq	r0, r0, ip, lsr #32
  68:	69050404 	stmdbvs	r5, {r2, sl}
  6c:	0200746e 	andeq	r7, r0, #1845493760	; 0x6e000000
  70:	00360704 	eorseq	r0, r6, r4, lsl #14
  74:	45030000 	strmi	r0, [r3, #-0]
  78:	03000000 	movweq	r0, #0
  7c:	00002c18 	andeq	r2, r0, r8, lsl ip
  80:	07040200 	streq	r0, [r4, -r0, lsl #4]
  84:	0000015a 	andeq	r0, r0, sl, asr r1
  88:	33080102 	movwcc	r0, #33026	; 0x8102
  8c:	05000001 	streq	r0, [r0, #-1]
  90:	0000014b 	andeq	r0, r0, fp, asr #2
  94:	00680b01 	rsbeq	r0, r8, r1, lsl #22
  98:	01d80000 	bicseq	r0, r8, r0
  9c:	00340800 	eorseq	r0, r4, r0, lsl #16
  a0:	9c010000 	stcls	0, cr0, [r1], {-0}
  a4:	000000c5 	andeq	r0, r0, r5, asr #1
  a8:	6e656c06 	cdpvs	12, 6, cr6, cr5, cr6, {0}
  ac:	680f0100 	stmdavs	pc, {r8}	; <UNPREDICTABLE>
  b0:	02000000 	andeq	r0, r0, #0
  b4:	20077491 	mulcs	r7, r1, r4
  b8:	01000000 	mrseq	r0, (UNDEF: 0)
  bc:	0000c511 	andeq	ip, r0, r1, lsl r5
  c0:	6c910200 	lfmvs	f0, 4, [r1], {0}
  c4:	00760800 	rsbseq	r0, r6, r0, lsl #16
  c8:	00d50000 	sbcseq	r0, r5, r0
  cc:	81090000 	mrshi	r0, (UNDEF: 9)
  d0:	04000000 	streq	r0, [r0], #-0
  d4:	00e50800 	rsceq	r0, r5, r0, lsl #16
  d8:	00e50000 	rsceq	r0, r5, r0
  dc:	81090000 	mrshi	r0, (UNDEF: 9)
  e0:	06000000 	streq	r0, [r0], -r0
  e4:	00880a00 	addeq	r0, r8, r0, lsl #20
  e8:	730b0000 	movwvc	r0, #45056	; 0xb000
  ec:	01007274 	tsteq	r0, r4, ror r2
  f0:	0000fb07 	andeq	pc, r0, r7, lsl #22
  f4:	00030500 	andeq	r0, r3, r0, lsl #10
  f8:	0a200000 	beq	800100 <_Stack_Size+0x800080>
  fc:	000000d5 	ldrdeq	r0, [r0], -r5
 100:	0000150c 	andeq	r1, r0, ip, lsl #10
 104:	c5090100 	strgt	r0, [r9, #-256]	; 0xffffff00
 108:	05000000 	streq	r0, [r0, #-0]
 10c:	00000803 	andeq	r0, r0, r3, lsl #16
 110:	01a70020 			; <UNDEFINED> instruction: 0x01a70020
 114:	00040000 	andeq	r0, r4, r0
 118:	000000ac 	andeq	r0, r0, ip, lsr #1
 11c:	004d0104 	subeq	r0, sp, r4, lsl #2
 120:	630c0000 	movwvs	r0, #49152	; 0xc000
 124:	ed000001 	stc	0, cr0, [r0, #-4]
 128:	10000000 	andne	r0, r0, r0
 12c:	00000000 	andeq	r0, r0, r0
 130:	d4000000 	strle	r0, [r0], #-0
 134:	02000000 	andeq	r0, r0, #0
 138:	012c0601 			; <UNDEFINED> instruction: 0x012c0601
 13c:	01020000 	mrseq	r0, (UNDEF: 2)
 140:	00012a08 	andeq	r2, r1, r8, lsl #20
 144:	05020200 	streq	r0, [r2, #-512]	; 0xfffffe00
 148:	00000150 	andeq	r0, r0, r0, asr r1
 14c:	38070202 	stmdacc	r7, {r1, r9}
 150:	02000001 	andeq	r0, r0, #1
 154:	00050504 	andeq	r0, r5, r4, lsl #10
 158:	04020000 	streq	r0, [r2], #-0
 15c:	00003107 	andeq	r3, r0, r7, lsl #2
 160:	05080200 	streq	r0, [r8, #-512]	; 0xfffffe00
 164:	00000000 	andeq	r0, r0, r0
 168:	2c070802 	stccs	8, cr0, [r7], {2}
 16c:	03000000 	movweq	r0, #0
 170:	6e690504 	cdpvs	5, 6, cr0, cr9, cr4, {0}
 174:	04020074 	streq	r0, [r2], #-116	; 0xffffff8c
 178:	00003607 	andeq	r3, r0, r7, lsl #12
 17c:	07040200 	streq	r0, [r4, -r0, lsl #4]
 180:	0000015a 	andeq	r0, r0, sl, asr r1
 184:	0001bb04 	andeq	fp, r1, r4, lsl #22
 188:	0c500100 	ldfeqe	f0, [r0], {-0}
 18c:	0a080002 	beq	20019c <_Stack_Size+0x20011c>
 190:	01000000 	mrseq	r0, (UNDEF: 0)
 194:	0229049c 	eoreq	r0, r9, #156, 8	; 0x9c000000
 198:	55010000 	strpl	r0, [r1, #-0]
 19c:	08000218 	stmdaeq	r0, {r3, r4, r9}
 1a0:	0000000a 	andeq	r0, r0, sl
 1a4:	ec049c01 	stc	12, cr9, [r4], {1}
 1a8:	01000001 	tsteq	r0, r1
 1ac:	0002245a 	andeq	r2, r2, sl, asr r4
 1b0:	00000a08 	andeq	r0, r0, r8, lsl #20
 1b4:	049c0100 	ldreq	r0, [ip], #256	; 0x100
 1b8:	000001c7 	andeq	r0, r0, r7, asr #3
 1bc:	02305f01 	eorseq	r5, r0, #1, 30
 1c0:	00060800 	andeq	r0, r6, r0, lsl #16
 1c4:	9c010000 	stcls	0, cr0, [r1], {-0}
 1c8:	00019b04 	andeq	r9, r1, r4, lsl #22
 1cc:	38640100 	stmdacc	r4!, {r8}^
 1d0:	0a080002 	beq	2001e0 <_Stack_Size+0x200160>
 1d4:	01000000 	mrseq	r0, (UNDEF: 0)
 1d8:	018d059c 			; <UNDEFINED> instruction: 0x018d059c
 1dc:	69010000 	stmdbvs	r1, {}	; <UNPREDICTABLE>
 1e0:	08000244 	stmdaeq	r0, {r2, r6, r9}
 1e4:	0000001a 	andeq	r0, r0, sl, lsl r0
 1e8:	01049c01 	tsteq	r4, r1, lsl #24
 1ec:	01000002 	tsteq	r0, r2
 1f0:	00026076 	andeq	r6, r2, r6, ror r0
 1f4:	00000a08 	andeq	r0, r0, r8, lsl #20
 1f8:	069c0100 	ldreq	r0, [ip], r0, lsl #2
 1fc:	000001ab 	andeq	r0, r0, fp, lsr #3
 200:	026c7d01 	rsbeq	r7, ip, #1, 26	; 0x40
 204:	00400800 	subeq	r0, r0, r0, lsl #16
 208:	9c010000 	stcls	0, cr0, [r1], {-0}
 20c:	0000011b 	andeq	r0, r0, fp, lsl r1
 210:	00018607 	andeq	r8, r1, r7, lsl #12
 214:	1b7f0100 	blne	1fc061c <_Stack_Size+0x1fc059c>
 218:	02000001 	andeq	r0, r0, #1
 21c:	b5077491 	strlt	r7, [r7, #-1169]	; 0xfffffb6f
 220:	01000001 	tsteq	r0, r1
 224:	00011b80 	andeq	r1, r1, r0, lsl #23
 228:	70910200 	addsvc	r0, r1, r0, lsl #4
 22c:	48040800 	stmdami	r4, {fp}
 230:	06000000 	streq	r0, [r0], -r0
 234:	000001f8 	strdeq	r0, [r0], -r8
 238:	02ac8901 	adceq	r8, ip, #16384	; 0x4000
 23c:	00300800 	eorseq	r0, r0, r0, lsl #16
 240:	9c010000 	stcls	0, cr0, [r1], {-0}
 244:	00000145 	andeq	r0, r0, r5, asr #2
 248:	00018607 	andeq	r8, r1, r7, lsl #12
 24c:	1b8b0100 	blne	fe2c0654 <_stack_end+0xde2bee55>
 250:	02000001 	andeq	r0, r0, #1
 254:	09007491 	stmdbeq	r0, {r0, r4, r7, sl, ip, sp, lr}
 258:	00000238 	andeq	r0, r0, r8, lsr r2
 25c:	00481401 	subeq	r1, r8, r1, lsl #8
 260:	6d090000 	stcvs	0, cr0, [r9, #-0]
 264:	01000001 	tsteq	r0, r1
 268:	00004815 	andeq	r4, r0, r5, lsl r8
 26c:	01e30900 	mvneq	r0, r0, lsl #18
 270:	16010000 	strne	r0, [r1], -r0
 274:	00000048 	andeq	r0, r0, r8, asr #32
 278:	00017809 	andeq	r7, r1, r9, lsl #16
 27c:	48170100 	ldmdami	r7, {r8}
 280:	09000000 	stmdbeq	r0, {}	; <UNPREDICTABLE>
 284:	00000211 	andeq	r0, r0, r1, lsl r2
 288:	00481901 	subeq	r1, r8, r1, lsl #18
 28c:	d9090000 	stmdble	r9, {}	; <UNPREDICTABLE>
 290:	01000001 	tsteq	r0, r1
 294:	0000481a 	andeq	r4, r0, sl, lsl r8
 298:	01970a00 	orrseq	r0, r7, r0, lsl #20
 29c:	01970000 	orrseq	r0, r7, r0
 2a0:	6b0b0000 	blvs	2c02a8 <_Stack_Size+0x2c0228>
 2a4:	2f000000 	svccs	0x00000000
 2a8:	0d040c00 	stceq	12, cr0, [r4, #-0]
 2ac:	0000021d 	andeq	r0, r0, sp, lsl r2
 2b0:	01871c01 	orreq	r1, r7, r1, lsl #24
 2b4:	03050000 	movweq	r0, #20480	; 0x5000
 2b8:	08000000 	stmdaeq	r0, {}	; <UNPREDICTABLE>
 2bc:	0002fd00 	andeq	pc, r2, r0, lsl #26
 2c0:	73000400 	movwvc	r0, #1024	; 0x400
 2c4:	04000001 	streq	r0, [r0], #-1
 2c8:	00004d01 	andeq	r4, r0, r1, lsl #26
 2cc:	02960c00 	addseq	r0, r6, #0, 24
 2d0:	00ed0000 	rsceq	r0, sp, r0
 2d4:	00600000 	rsbeq	r0, r0, r0
 2d8:	00000000 	andeq	r0, r0, r0
 2dc:	01c40000 	biceq	r0, r4, r0
 2e0:	01020000 	mrseq	r0, (UNDEF: 2)
 2e4:	00012c06 	andeq	r2, r1, r6, lsl #24
 2e8:	00430300 	subeq	r0, r3, r0, lsl #6
 2ec:	1d020000 	stcne	0, cr0, [r2, #-0]
 2f0:	00000037 	andeq	r0, r0, r7, lsr r0
 2f4:	2a080102 	bcs	200704 <_Stack_Size+0x200684>
 2f8:	02000001 	andeq	r0, r0, #1
 2fc:	01500502 	cmpeq	r0, r2, lsl #10
 300:	50030000 	andpl	r0, r3, r0
 304:	02000003 	andeq	r0, r0, #3
 308:	0000502b 	andeq	r5, r0, fp, lsr #32
 30c:	07020200 	streq	r0, [r2, -r0, lsl #4]
 310:	00000138 	andeq	r0, r0, r8, lsr r1
 314:	05050402 	streq	r0, [r5, #-1026]	; 0xfffffbfe
 318:	03000000 	movweq	r0, #0
 31c:	000002f2 	strdeq	r0, [r0], -r2
 320:	00694102 	rsbeq	r4, r9, r2, lsl #2
 324:	04020000 	streq	r0, [r2], #-0
 328:	00003107 	andeq	r3, r0, r7, lsl #2
 32c:	05080200 	streq	r0, [r8, #-512]	; 0xfffffe00
 330:	00000000 	andeq	r0, r0, r0
 334:	2c070802 	stccs	8, cr0, [r7], {2}
 338:	04000000 	streq	r0, [r0], #-0
 33c:	6e690504 	cdpvs	5, 6, cr0, cr9, cr4, {0}
 340:	04020074 	streq	r0, [r2], #-116	; 0xffffff8c
 344:	00003607 	andeq	r3, r0, r7, lsl #12
 348:	00450300 	subeq	r0, r5, r0, lsl #6
 34c:	18030000 	stmdane	r3, {}	; <UNPREDICTABLE>
 350:	0000002c 	andeq	r0, r0, ip, lsr #32
 354:	00035203 	andeq	r5, r3, r3, lsl #4
 358:	45240300 	strmi	r0, [r4, #-768]!	; 0xfffffd00
 35c:	03000000 	movweq	r0, #0
 360:	000002f4 	strdeq	r0, [r0], -r4
 364:	005e3003 	subseq	r3, lr, r3
 368:	04020000 	streq	r0, [r2], #-0
 36c:	00015a07 	andeq	r5, r1, r7, lsl #20
 370:	00a20500 	adceq	r0, r2, r0, lsl #10
 374:	01060000 	mrseq	r0, (UNDEF: 6)
 378:	00000037 	andeq	r0, r0, r7, lsr r0
 37c:	d301e704 	movwle	lr, #5892	; 0x1704
 380:	07000000 	streq	r0, [r0, -r0]
 384:	00000367 	andeq	r0, r0, r7, ror #6
 388:	45530800 	ldrbmi	r0, [r3, #-2048]	; 0xfffff800
 38c:	00010054 	andeq	r0, r1, r4, asr r0
 390:	00008c05 	andeq	r8, r0, r5, lsl #24
 394:	04240900 	strteq	r0, [r4], #-2304	; 0xfffff700
 398:	015402c3 	cmpeq	r4, r3, asr #5
 39c:	410a0000 	mrsmi	r0, (UNDEF: 10)
 3a0:	04005243 	streq	r5, [r0], #-579	; 0xfffffdbd
 3a4:	00b402c5 	adcseq	r0, r4, r5, asr #5
 3a8:	0b000000 	bleq	3b0 <_Stack_Size+0x330>
 3ac:	000002cd 	andeq	r0, r0, sp, asr #5
 3b0:	b402c604 	strlt	ip, [r2], #-1540	; 0xfffff9fc
 3b4:	04000000 	streq	r0, [r0], #-0
 3b8:	0002ca0b 	andeq	ip, r2, fp, lsl #20
 3bc:	02c70400 	sbceq	r0, r7, #0, 8
 3c0:	000000b4 	strheq	r0, [r0], -r4
 3c4:	52530a08 	subspl	r0, r3, #8, 20	; 0x8000
 3c8:	02c80400 	sbceq	r0, r8, #0, 8
 3cc:	000000b4 	strheq	r0, [r0], -r4
 3d0:	52430a0c 	subpl	r0, r3, #12, 20	; 0xc000
 3d4:	02c90400 	sbceq	r0, r9, #0, 8
 3d8:	000000b4 	strheq	r0, [r0], -r4
 3dc:	52410a10 	subpl	r0, r1, #16, 20	; 0x10000
 3e0:	02ca0400 	sbceq	r0, sl, #0, 8
 3e4:	000000b4 	strheq	r0, [r0], -r4
 3e8:	02e00b14 	rsceq	r0, r0, #20, 22	; 0x5000
 3ec:	cb040000 	blgt	1003f4 <_Stack_Size+0x100374>
 3f0:	0000b402 	andeq	fp, r0, r2, lsl #8
 3f4:	4f0a1800 	svcmi	0x000a1800
 3f8:	04005242 	streq	r5, [r0], #-578	; 0xfffffdbe
 3fc:	00b402cc 	adcseq	r0, r4, ip, asr #5
 400:	0b1c0000 	bleq	700408 <_Stack_Size+0x700388>
 404:	000002a9 	andeq	r0, r0, r9, lsr #5
 408:	b402cd04 	strlt	ip, [r2], #-3332	; 0xfffff2fc
 40c:	20000000 	andcs	r0, r0, r0
 410:	027b0c00 	rsbseq	r0, fp, #0, 24
 414:	ce040000 	cdpgt	0, 0, cr0, cr4, cr0, {0}
 418:	0000d802 	andeq	sp, r0, r2, lsl #16
 41c:	04380900 	ldrteq	r0, [r8], #-2304	; 0xfffff700
 420:	021f0334 	andseq	r0, pc, #52, 6	; 0xd0000000
 424:	430a0000 	movwmi	r0, #40960	; 0xa000
 428:	36040052 			; <UNDEFINED> instruction: 0x36040052
 42c:	0000b403 	andeq	fp, r0, r3, lsl #8
 430:	5a0b0000 	bpl	2c0438 <_Stack_Size+0x2c03b8>
 434:	04000002 	streq	r0, [r0], #-2
 438:	00b40337 	adcseq	r0, r4, r7, lsr r3
 43c:	0a040000 	beq	100444 <_Stack_Size+0x1003c4>
 440:	00524943 	subseq	r4, r2, r3, asr #18
 444:	b4033804 	strlt	r3, [r3], #-2052	; 0xfffff7fc
 448:	08000000 	stmdaeq	r0, {}	; <UNPREDICTABLE>
 44c:	0003050b 	andeq	r0, r3, fp, lsl #10
 450:	03390400 	teqeq	r9, #0, 8
 454:	000000b4 	strheq	r0, [r0], -r4
 458:	02e90b0c 	rsceq	r0, r9, #12, 22	; 0x3000
 45c:	3a040000 	bcc	100464 <_Stack_Size+0x1003e4>
 460:	0000b403 	andeq	fp, r0, r3, lsl #8
 464:	890b1000 	stmdbhi	fp, {ip}
 468:	04000002 	streq	r0, [r0], #-2
 46c:	00b4033b 	adcseq	r0, r4, fp, lsr r3
 470:	0b140000 	bleq	500478 <_Stack_Size+0x5003f8>
 474:	000002ae 	andeq	r0, r0, lr, lsr #5
 478:	b4033c04 	strlt	r3, [r3], #-3076	; 0xfffff3fc
 47c:	18000000 	stmdane	r0, {}	; <UNPREDICTABLE>
 480:	0002fd0b 	andeq	pc, r2, fp, lsl #26
 484:	033d0400 	teqeq	sp, #0, 8
 488:	000000b4 	strheq	r0, [r0], -r4
 48c:	031a0b1c 	tsteq	sl, #28, 22	; 0x7000
 490:	3e040000 	cdpcc	0, 0, cr0, cr4, cr0, {0}
 494:	0000b403 	andeq	fp, r0, r3, lsl #8
 498:	430a2000 	movwmi	r2, #40960	; 0xa000
 49c:	04005253 	streq	r5, [r0], #-595	; 0xfffffdad
 4a0:	00b4033f 	adcseq	r0, r4, pc, lsr r3
 4a4:	0b240000 	bleq	9004ac <_Stack_Size+0x90042c>
 4a8:	00000269 	andeq	r0, r0, r9, ror #4
 4ac:	b4034004 	strlt	r4, [r3], #-4
 4b0:	28000000 	stmdacs	r0, {}	; <UNPREDICTABLE>
 4b4:	0002900b 	andeq	r9, r2, fp
 4b8:	03410400 	movteq	r0, #5120	; 0x1400
 4bc:	000000b4 	strheq	r0, [r0], -r4
 4c0:	02c40b2c 	sbceq	r0, r4, #44, 22	; 0xb000
 4c4:	42040000 	andmi	r0, r4, #0
 4c8:	0000b403 	andeq	fp, r0, r3, lsl #8
 4cc:	430a3000 	movwmi	r3, #40960	; 0xa000
 4d0:	04003252 	streq	r3, [r0], #-594	; 0xfffffdae
 4d4:	00b40343 	adcseq	r0, r4, r3, asr #6
 4d8:	00340000 	eorseq	r0, r4, r0
 4dc:	00035b0c 	andeq	r5, r3, ip, lsl #22
 4e0:	03440400 	movteq	r0, #17408	; 0x4400
 4e4:	00000160 	andeq	r0, r0, r0, ror #2
 4e8:	00031f0d 	andeq	r1, r3, sp, lsl #30
 4ec:	dc9f0100 	ldfles	f0, [pc], {0}
 4f0:	8c080002 	stchi	0, cr0, [r8], {2}
 4f4:	01000000 	mrseq	r0, (UNDEF: 0)
 4f8:	033a0e9c 	teqeq	sl, #156, 28	; 0x9c0
 4fc:	e8010000 	stmda	r1, {}	; <UNPREDICTABLE>
 500:	08000368 	stmdaeq	r0, {r3, r5, r6, r8, r9}
 504:	000000d4 	ldrdeq	r0, [r0], -r4
 508:	028a9c01 	addeq	r9, sl, #256	; 0x100
 50c:	740f0000 	strvc	r0, [pc], #-0	; 514 <_Stack_Size+0x494>
 510:	0100706d 	tsteq	r0, sp, rrx
 514:	0000a2ea 	andeq	sl, r0, sl, ror #5
 518:	74910200 	ldrvc	r0, [r1], #512	; 0x200
 51c:	00024310 	andeq	r4, r2, r0, lsl r3
 520:	a2ea0100 	rscge	r0, sl, #0, 2
 524:	02000000 	andeq	r0, r0, #0
 528:	5f107091 	svcpl	0x00107091
 52c:	01000002 	tsteq	r0, r2
 530:	0000a2ea 	andeq	sl, r0, sl, ror #5
 534:	6c910200 	lfmvs	f0, 4, [r1], {0}
 538:	0002d210 	andeq	sp, r2, r0, lsl r2
 53c:	a2ea0100 	rscge	r0, sl, #0, 2
 540:	02000000 	andeq	r0, r0, #0
 544:	11006891 			; <UNDEFINED> instruction: 0x11006891
 548:	0000030e 	andeq	r0, r0, lr, lsl #6
 54c:	3c011c01 	stccc	12, cr1, [r1], {1}
 550:	e0080004 	and	r0, r8, r4
 554:	01000000 	mrseq	r0, (UNDEF: 0)
 558:	0002bf9c 	muleq	r2, ip, pc	; <UNPREDICTABLE>
 55c:	024b1200 	subeq	r1, fp, #0, 4
 560:	1e010000 	cdpne	0, 0, cr0, cr1, cr0, {0}
 564:	0000b401 	andeq	fp, r0, r1, lsl #8
 568:	74910200 	ldrvc	r0, [r1], #512	; 0x200
 56c:	00027112 	andeq	r7, r2, r2, lsl r1
 570:	011e0100 	tsteq	lr, r0, lsl #2
 574:	000000b4 	strheq	r0, [r0], -r4
 578:	00709102 	rsbseq	r9, r0, r2, lsl #2
 57c:	00032a13 	andeq	r2, r3, r3, lsl sl
 580:	a2830100 	addge	r0, r3, #0, 2
 584:	05000000 	streq	r0, [r0, #-0]
 588:	00001003 	andeq	r1, r0, r3
 58c:	02e01420 	rsceq	r1, r0, #32, 8	; 0x20000000
 590:	02e00000 	rsceq	r0, r0, #0
 594:	ad150000 	ldcge	0, cr0, [r5, #-0]
 598:	0f000000 	svceq	0x00000000
 59c:	00d31600 	sbcseq	r1, r3, r0, lsl #12
 5a0:	b6130000 	ldrlt	r0, [r3], -r0
 5a4:	01000002 	tsteq	r0, r2
 5a8:	0002fb84 	andeq	pc, r2, r4, lsl #23
 5ac:	14030500 	strne	r0, [r3], #-1280	; 0xfffffb00
 5b0:	05200000 	streq	r0, [r0, #-0]!
 5b4:	000002d0 	ldrdeq	r0, [r0], -r0	; <UNPREDICTABLE>
 5b8:	0002f616 	andeq	pc, r2, r6, lsl r6	; <UNPREDICTABLE>
	...

Disassembly of section .debug_abbrev:

00000000 <.debug_abbrev>:
   0:	25011101 	strcs	r1, [r1, #-257]	; 0xfffffeff
   4:	030b130e 	movweq	r1, #45838	; 0xb30e
   8:	550e1b0e 	strpl	r1, [lr, #-2830]	; 0xfffff4f2
   c:	10011117 	andne	r1, r1, r7, lsl r1
  10:	02000017 	andeq	r0, r0, #23
  14:	0b0b0024 	bleq	2c00ac <_Stack_Size+0x2c002c>
  18:	0e030b3e 	vmoveq.16	d3[0], r0
  1c:	16030000 	strne	r0, [r3], -r0
  20:	3a0e0300 	bcc	380c28 <_Stack_Size+0x380ba8>
  24:	490b3b0b 	stmdbmi	fp, {r0, r1, r3, r8, r9, fp, ip, sp}
  28:	04000013 	streq	r0, [r0], #-19	; 0xffffffed
  2c:	0b0b0024 	bleq	2c00c4 <_Stack_Size+0x2c0044>
  30:	08030b3e 	stmdaeq	r3, {r1, r2, r3, r4, r5, r8, r9, fp}
  34:	2e050000 	cdpcs	0, 0, cr0, cr5, cr0, {0}
  38:	03193f01 	tsteq	r9, #1, 30
  3c:	3b0b3a0e 	blcc	2ce87c <_Stack_Size+0x2ce7fc>
  40:	4919270b 	ldmdbmi	r9, {r0, r1, r3, r8, r9, sl, sp}
  44:	12011113 	andne	r1, r1, #-1073741820	; 0xc0000004
  48:	96184006 	ldrls	r4, [r8], -r6
  4c:	13011942 	movwne	r1, #6466	; 0x1942
  50:	34060000 	strcc	r0, [r6], #-0
  54:	3a080300 	bcc	200c5c <_Stack_Size+0x200bdc>
  58:	490b3b0b 	stmdbmi	fp, {r0, r1, r3, r8, r9, fp, ip, sp}
  5c:	00180213 	andseq	r0, r8, r3, lsl r2
  60:	00340700 	eorseq	r0, r4, r0, lsl #14
  64:	0b3a0e03 	bleq	e83878 <_Stack_Size+0xe837f8>
  68:	13490b3b 	movtne	r0, #39739	; 0x9b3b
  6c:	00001802 	andeq	r1, r0, r2, lsl #16
  70:	49010108 	stmdbmi	r1, {r3, r8}
  74:	00130113 	andseq	r0, r3, r3, lsl r1
  78:	00210900 	eoreq	r0, r1, r0, lsl #18
  7c:	0b2f1349 	bleq	bc4da8 <_Stack_Size+0xbc4d28>
  80:	350a0000 	strcc	r0, [sl, #-0]
  84:	00134900 	andseq	r4, r3, r0, lsl #18
  88:	00340b00 	eorseq	r0, r4, r0, lsl #22
  8c:	0b3a0803 	bleq	e820a0 <_Stack_Size+0xe82020>
  90:	13490b3b 	movtne	r0, #39739	; 0x9b3b
  94:	1802193f 	stmdane	r2, {r0, r1, r2, r3, r4, r5, r8, fp, ip}
  98:	340c0000 	strcc	r0, [ip], #-0
  9c:	3a0e0300 	bcc	380ca4 <_Stack_Size+0x380c24>
  a0:	490b3b0b 	stmdbmi	fp, {r0, r1, r3, r8, r9, fp, ip, sp}
  a4:	02193f13 	andseq	r3, r9, #19, 30	; 0x4c
  a8:	00000018 	andeq	r0, r0, r8, lsl r0
  ac:	25011101 	strcs	r1, [r1, #-257]	; 0xfffffeff
  b0:	030b130e 	movweq	r1, #45838	; 0xb30e
  b4:	550e1b0e 	strpl	r1, [lr, #-2830]	; 0xfffff4f2
  b8:	10011117 	andne	r1, r1, r7, lsl r1
  bc:	02000017 	andeq	r0, r0, #23
  c0:	0b0b0024 	bleq	2c0158 <_Stack_Size+0x2c00d8>
  c4:	0e030b3e 	vmoveq.16	d3[0], r0
  c8:	24030000 	strcs	r0, [r3], #-0
  cc:	3e0b0b00 	vmlacc.f64	d0, d11, d0
  d0:	0008030b 	andeq	r0, r8, fp, lsl #6
  d4:	002e0400 	eoreq	r0, lr, r0, lsl #8
  d8:	0e03193f 	mcreq	9, 0, r1, cr3, cr15, {1}
  dc:	0b3b0b3a 	bleq	ec2dcc <_Stack_Size+0xec2d4c>
  e0:	01111927 	tsteq	r1, r7, lsr #18
  e4:	18400612 	stmdane	r0, {r1, r4, r9, sl}^
  e8:	00194297 	mulseq	r9, r7, r2
  ec:	002e0500 	eoreq	r0, lr, r0, lsl #10
  f0:	0e03193f 	mcreq	9, 0, r1, cr3, cr15, {1}
  f4:	0b3b0b3a 	bleq	ec2de4 <_Stack_Size+0xec2d64>
  f8:	01111927 	tsteq	r1, r7, lsr #18
  fc:	18400612 	stmdane	r0, {r1, r4, r9, sl}^
 100:	00194296 	mulseq	r9, r6, r2
 104:	012e0600 			; <UNDEFINED> instruction: 0x012e0600
 108:	0e03193f 	mcreq	9, 0, r1, cr3, cr15, {1}
 10c:	0b3b0b3a 	bleq	ec2dfc <_Stack_Size+0xec2d7c>
 110:	01111927 	tsteq	r1, r7, lsr #18
 114:	18400612 	stmdane	r0, {r1, r4, r9, sl}^
 118:	01194297 			; <UNDEFINED> instruction: 0x01194297
 11c:	07000013 	smladeq	r0, r3, r0, r0
 120:	0e030034 	mcreq	0, 0, r0, cr3, cr4, {1}
 124:	0b3b0b3a 	bleq	ec2e14 <_Stack_Size+0xec2d94>
 128:	18021349 	stmdane	r2, {r0, r3, r6, r8, r9, ip}
 12c:	0f080000 	svceq	0x00080000
 130:	490b0b00 	stmdbmi	fp, {r8, r9, fp}
 134:	09000013 	stmdbeq	r0, {r0, r1, r4}
 138:	0e030034 	mcreq	0, 0, r0, cr3, cr4, {1}
 13c:	0b3b0b3a 	bleq	ec2e2c <_Stack_Size+0xec2dac>
 140:	193f1349 	ldmdbne	pc!, {r0, r3, r6, r8, r9, ip}	; <UNPREDICTABLE>
 144:	0000193c 	andeq	r1, r0, ip, lsr r9
 148:	4901010a 	stmdbmi	r1, {r1, r3, r8}
 14c:	00130113 	andseq	r0, r3, r3, lsl r1
 150:	00210b00 	eoreq	r0, r1, r0, lsl #22
 154:	0b2f1349 	bleq	bc4e80 <_Stack_Size+0xbc4e00>
 158:	0f0c0000 	svceq	0x000c0000
 15c:	000b0b00 	andeq	r0, fp, r0, lsl #22
 160:	00340d00 	eorseq	r0, r4, r0, lsl #26
 164:	0b3a0e03 	bleq	e83978 <_Stack_Size+0xe838f8>
 168:	13490b3b 	movtne	r0, #39739	; 0x9b3b
 16c:	1802193f 	stmdane	r2, {r0, r1, r2, r3, r4, r5, r8, fp, ip}
 170:	01000000 	mrseq	r0, (UNDEF: 0)
 174:	0e250111 	mcreq	1, 1, r0, cr5, cr1, {0}
 178:	0e030b13 	vmoveq.32	d3[0], r0
 17c:	17550e1b 	smmlane	r5, fp, lr, r0
 180:	17100111 			; <UNDEFINED> instruction: 0x17100111
 184:	24020000 	strcs	r0, [r2], #-0
 188:	3e0b0b00 	vmlacc.f64	d0, d11, d0
 18c:	000e030b 	andeq	r0, lr, fp, lsl #6
 190:	00160300 	andseq	r0, r6, r0, lsl #6
 194:	0b3a0e03 	bleq	e839a8 <_Stack_Size+0xe83928>
 198:	13490b3b 	movtne	r0, #39739	; 0x9b3b
 19c:	24040000 	strcs	r0, [r4], #-0
 1a0:	3e0b0b00 	vmlacc.f64	d0, d11, d0
 1a4:	0008030b 	andeq	r0, r8, fp, lsl #6
 1a8:	00350500 	eorseq	r0, r5, r0, lsl #10
 1ac:	00001349 	andeq	r1, r0, r9, asr #6
 1b0:	0b010406 	bleq	411d0 <_Stack_Size+0x41150>
 1b4:	3a13490b 	bcc	4d25e8 <_Stack_Size+0x4d2568>
 1b8:	01053b0b 	tsteq	r5, fp, lsl #22
 1bc:	07000013 	smladeq	r0, r3, r0, r0
 1c0:	0e030028 	cdpeq	0, 0, cr0, cr3, cr8, {1}
 1c4:	00000b1c 	andeq	r0, r0, ip, lsl fp
 1c8:	03002808 	movweq	r2, #2056	; 0x808
 1cc:	000b1c08 	andeq	r1, fp, r8, lsl #24
 1d0:	01130900 	tsteq	r3, r0, lsl #18
 1d4:	0b3a0b0b 	bleq	e82e08 <_Stack_Size+0xe82d88>
 1d8:	1301053b 	movwne	r0, #5435	; 0x153b
 1dc:	0d0a0000 	stceq	0, cr0, [sl, #-0]
 1e0:	3a080300 	bcc	200de8 <_Stack_Size+0x200d68>
 1e4:	49053b0b 	stmdbmi	r5, {r0, r1, r3, r8, r9, fp, ip, sp}
 1e8:	000b3813 	andeq	r3, fp, r3, lsl r8
 1ec:	000d0b00 	andeq	r0, sp, r0, lsl #22
 1f0:	0b3a0e03 	bleq	e83a04 <_Stack_Size+0xe83984>
 1f4:	1349053b 	movtne	r0, #38203	; 0x953b
 1f8:	00000b38 	andeq	r0, r0, r8, lsr fp
 1fc:	0300160c 	movweq	r1, #1548	; 0x60c
 200:	3b0b3a0e 	blcc	2cea40 <_Stack_Size+0x2ce9c0>
 204:	00134905 	andseq	r4, r3, r5, lsl #18
 208:	002e0d00 	eoreq	r0, lr, r0, lsl #26
 20c:	0e03193f 	mcreq	9, 0, r1, cr3, cr15, {1}
 210:	0b3b0b3a 	bleq	ec2f00 <_Stack_Size+0xec2e80>
 214:	01111927 	tsteq	r1, r7, lsr #18
 218:	18400612 	stmdane	r0, {r1, r4, r9, sl}^
 21c:	00194296 	mulseq	r9, r6, r2
 220:	012e0e00 			; <UNDEFINED> instruction: 0x012e0e00
 224:	0e03193f 	mcreq	9, 0, r1, cr3, cr15, {1}
 228:	0b3b0b3a 	bleq	ec2f18 <_Stack_Size+0xec2e98>
 22c:	01111927 	tsteq	r1, r7, lsr #18
 230:	18400612 	stmdane	r0, {r1, r4, r9, sl}^
 234:	01194296 			; <UNDEFINED> instruction: 0x01194296
 238:	0f000013 	svceq	0x00000013
 23c:	08030034 	stmdaeq	r3, {r2, r4, r5}
 240:	0b3b0b3a 	bleq	ec2f30 <_Stack_Size+0xec2eb0>
 244:	18021349 	stmdane	r2, {r0, r3, r6, r8, r9, ip}
 248:	34100000 	ldrcc	r0, [r0], #-0
 24c:	3a0e0300 	bcc	380e54 <_Stack_Size+0x380dd4>
 250:	490b3b0b 	stmdbmi	fp, {r0, r1, r3, r8, r9, fp, ip, sp}
 254:	00180213 	andseq	r0, r8, r3, lsl r2
 258:	012e1100 			; <UNDEFINED> instruction: 0x012e1100
 25c:	0b3a0e03 	bleq	e83a70 <_Stack_Size+0xe839f0>
 260:	1927053b 	stmdbne	r7!, {r0, r1, r3, r4, r5, r8, sl}
 264:	06120111 			; <UNDEFINED> instruction: 0x06120111
 268:	42971840 	addsmi	r1, r7, #64, 16	; 0x400000
 26c:	00130119 	andseq	r0, r3, r9, lsl r1
 270:	00341200 	eorseq	r1, r4, r0, lsl #4
 274:	0b3a0e03 	bleq	e83a88 <_Stack_Size+0xe83a08>
 278:	1349053b 	movtne	r0, #38203	; 0x953b
 27c:	00001802 	andeq	r1, r0, r2, lsl #16
 280:	03003413 	movweq	r3, #1043	; 0x413
 284:	3b0b3a0e 	blcc	2ceac4 <_Stack_Size+0x2cea44>
 288:	3f13490b 	svccc	0x0013490b
 28c:	00180219 	andseq	r0, r8, r9, lsl r2
 290:	01011400 	tsteq	r1, r0, lsl #8
 294:	13011349 	movwne	r1, #4937	; 0x1349
 298:	21150000 	tstcs	r5, r0
 29c:	2f134900 	svccs	0x00134900
 2a0:	1600000b 	strne	r0, [r0], -fp
 2a4:	13490026 	movtne	r0, #36902	; 0x9026
 2a8:	Address 0x000002a8 is out of bounds.


Disassembly of section .debug_aranges:

00000000 <.debug_aranges>:
   0:	0000001c 	andeq	r0, r0, ip, lsl r0
   4:	00000002 	andeq	r0, r0, r2
   8:	00040000 	andeq	r0, r4, r0
   c:	00000000 	andeq	r0, r0, r0
  10:	080001d8 	stmdaeq	r0, {r3, r4, r6, r7, r8}
  14:	00000034 	andeq	r0, r0, r4, lsr r0
	...
  20:	0000005c 	andeq	r0, r0, ip, asr r0
  24:	01120002 	tsteq	r2, r2
  28:	00040000 	andeq	r0, r4, r0
  2c:	00000000 	andeq	r0, r0, r0
  30:	0800020c 	stmdaeq	r0, {r2, r3, r9}
  34:	0000000a 	andeq	r0, r0, sl
  38:	08000218 	stmdaeq	r0, {r3, r4, r9}
  3c:	0000000a 	andeq	r0, r0, sl
  40:	08000224 	stmdaeq	r0, {r2, r5, r9}
  44:	0000000a 	andeq	r0, r0, sl
  48:	08000230 	stmdaeq	r0, {r4, r5, r9}
  4c:	00000006 	andeq	r0, r0, r6
  50:	08000238 	stmdaeq	r0, {r3, r4, r5, r9}
  54:	0000000a 	andeq	r0, r0, sl
  58:	08000244 	stmdaeq	r0, {r2, r6, r9}
  5c:	0000001a 	andeq	r0, r0, sl, lsl r0
  60:	08000260 	stmdaeq	r0, {r5, r6, r9}
  64:	0000000a 	andeq	r0, r0, sl
  68:	0800026c 	stmdaeq	r0, {r2, r3, r5, r6, r9}
  6c:	00000040 	andeq	r0, r0, r0, asr #32
  70:	080002ac 	stmdaeq	r0, {r2, r3, r5, r7, r9}
  74:	00000030 	andeq	r0, r0, r0, lsr r0
	...
  80:	0000002c 	andeq	r0, r0, ip, lsr #32
  84:	02bd0002 	adcseq	r0, sp, #2
  88:	00040000 	andeq	r0, r4, r0
  8c:	00000000 	andeq	r0, r0, r0
  90:	080002dc 	stmdaeq	r0, {r2, r3, r4, r6, r7, r9}
  94:	0000008c 	andeq	r0, r0, ip, lsl #1
  98:	08000368 	stmdaeq	r0, {r3, r5, r6, r8, r9}
  9c:	000000d4 	ldrdeq	r0, [r0], -r4
  a0:	0800043c 	stmdaeq	r0, {r2, r3, r4, r5, sl}
  a4:	000000e0 	andeq	r0, r0, r0, ror #1
	...

Disassembly of section .debug_ranges:

00000000 <.debug_ranges>:
   0:	080001d8 	stmdaeq	r0, {r3, r4, r6, r7, r8}
   4:	0800020c 	stmdaeq	r0, {r2, r3, r9}
	...
  10:	0800020c 	stmdaeq	r0, {r2, r3, r9}
  14:	08000216 	stmdaeq	r0, {r1, r2, r4, r9}
  18:	08000218 	stmdaeq	r0, {r3, r4, r9}
  1c:	08000222 	stmdaeq	r0, {r1, r5, r9}
  20:	08000224 	stmdaeq	r0, {r2, r5, r9}
  24:	0800022e 	stmdaeq	r0, {r1, r2, r3, r5, r9}
  28:	08000230 	stmdaeq	r0, {r4, r5, r9}
  2c:	08000236 	stmdaeq	r0, {r1, r2, r4, r5, r9}
  30:	08000238 	stmdaeq	r0, {r3, r4, r5, r9}
  34:	08000242 	stmdaeq	r0, {r1, r6, r9}
  38:	08000244 	stmdaeq	r0, {r2, r6, r9}
  3c:	0800025e 	stmdaeq	r0, {r1, r2, r3, r4, r6, r9}
  40:	08000260 	stmdaeq	r0, {r5, r6, r9}
  44:	0800026a 	stmdaeq	r0, {r1, r3, r5, r6, r9}
  48:	0800026c 	stmdaeq	r0, {r2, r3, r5, r6, r9}
  4c:	080002ac 	stmdaeq	r0, {r2, r3, r5, r7, r9}
  50:	080002ac 	stmdaeq	r0, {r2, r3, r5, r7, r9}
  54:	080002dc 	stmdaeq	r0, {r2, r3, r4, r6, r7, r9}
	...
  60:	080002dc 	stmdaeq	r0, {r2, r3, r4, r6, r7, r9}
  64:	08000368 	stmdaeq	r0, {r3, r5, r6, r8, r9}
  68:	08000368 	stmdaeq	r0, {r3, r5, r6, r8, r9}
  6c:	0800043c 	stmdaeq	r0, {r2, r3, r4, r5, sl}
  70:	0800043c 	stmdaeq	r0, {r2, r3, r4, r5, sl}
  74:	0800051c 	stmdaeq	r0, {r2, r3, r4, r8, sl}
	...

Disassembly of section .debug_line:

00000000 <.debug_line>:
   0:	000000d0 	ldrdeq	r0, [r0], -r0	; <UNPREDICTABLE>
   4:	00b20002 	adcseq	r0, r2, r2
   8:	01020000 	mrseq	r0, (UNDEF: 2)
   c:	000d0efb 	strdeq	r0, [sp], -fp
  10:	01010101 	tsteq	r1, r1, lsl #2
  14:	01000000 	mrseq	r0, (UNDEF: 0)
  18:	63010000 	movwvs	r0, #4096	; 0x1000
  1c:	6f635c3a 	svcvs	0x00635c3a
  20:	6c69706d 	stclvs	0, cr7, [r9], #-436	; 0xfffffe4c
  24:	615c7265 	cmpvs	ip, r5, ror #4
  28:	6e2d6d72 	mcrvs	13, 1, r6, cr13, cr2, {3}
  2c:	2d656e6f 	stclcs	14, cr6, [r5, #-444]!	; 0xfffffe44
  30:	69626165 	stmdbvs	r2!, {r0, r2, r5, r6, r8, sp, lr}^
  34:	342e352d 	strtcc	r3, [lr], #-1325	; 0xfffffad3
  38:	6d72615c 	ldfvse	f6, [r2, #-368]!	; 0xfffffe90
  3c:	6e6f6e2d 	cdpvs	14, 6, cr6, cr15, cr13, {1}
  40:	61652d65 	cmnvs	r5, r5, ror #26
  44:	695c6962 	ldmdbvs	ip, {r1, r5, r6, r8, fp, sp, lr}^
  48:	756c636e 	strbvc	r6, [ip, #-878]!	; 0xfffffc92
  4c:	6d5c6564 	cfldr64vs	mvdx6, [ip, #-400]	; 0xfffffe70
  50:	69686361 	stmdbvs	r8!, {r0, r5, r6, r8, r9, sp, lr}^
  54:	6300656e 	movwvs	r6, #1390	; 0x56e
  58:	6f635c3a 	svcvs	0x00635c3a
  5c:	6c69706d 	stclvs	0, cr7, [r9], #-436	; 0xfffffe4c
  60:	615c7265 	cmpvs	ip, r5, ror #4
  64:	6e2d6d72 	mcrvs	13, 1, r6, cr13, cr2, {3}
  68:	2d656e6f 	stclcs	14, cr6, [r5, #-444]!	; 0xfffffe44
  6c:	69626165 	stmdbvs	r2!, {r0, r2, r5, r6, r8, sp, lr}^
  70:	342e352d 	strtcc	r3, [lr], #-1325	; 0xfffffad3
  74:	6d72615c 	ldfvse	f6, [r2, #-368]!	; 0xfffffe90
  78:	6e6f6e2d 	cdpvs	14, 6, cr6, cr15, cr13, {1}
  7c:	61652d65 	cmnvs	r5, r5, ror #26
  80:	695c6962 	ldmdbvs	ip, {r1, r5, r6, r8, fp, sp, lr}^
  84:	756c636e 	strbvc	r6, [ip, #-878]!	; 0xfffffc92
  88:	735c6564 	cmpvc	ip, #100, 10	; 0x19000000
  8c:	00007379 	andeq	r7, r0, r9, ror r3
  90:	6e69616d 	powvsez	f6, f1, #5.0
  94:	0000632e 	andeq	r6, r0, lr, lsr #6
  98:	645f0000 	ldrbvs	r0, [pc], #-0	; a0 <_Stack_Size+0x20>
  9c:	75616665 	strbvc	r6, [r1, #-1637]!	; 0xfffff99b
  a0:	745f746c 	ldrbvc	r7, [pc], #-1132	; a8 <_Stack_Size+0x28>
  a4:	73657079 	cmnvc	r5, #121	; 0x79
  a8:	0100682e 	tsteq	r0, lr, lsr #16
  ac:	735f0000 	cmpvc	pc, #0
  b0:	6e696474 	mcrvs	4, 3, r6, cr9, cr4, {3}
  b4:	00682e74 	rsbeq	r2, r8, r4, ror lr
  b8:	00000002 	andeq	r0, r0, r2
  bc:	d8020500 	stmdale	r2, {r8, sl}
  c0:	03080001 	movweq	r0, #32769	; 0x8001
  c4:	6a3f010b 	bvs	fc04f8 <_Stack_Size+0xfc0478>
  c8:	0200313e 	andeq	r3, r0, #-2147483633	; 0x8000000f
  cc:	026b0104 	rsbeq	r0, fp, #4, 2
  d0:	01010006 	tsteq	r1, r6
  d4:	000000ec 	andeq	r0, r0, ip, ror #1
  d8:	00200002 	eoreq	r0, r0, r2
  dc:	01020000 	mrseq	r0, (UNDEF: 2)
  e0:	000d0efb 	strdeq	r0, [sp], -fp
  e4:	01010101 	tsteq	r1, r1, lsl #2
  e8:	01000000 	mrseq	r0, (UNDEF: 0)
  ec:	00010000 	andeq	r0, r1, r0
  f0:	72617473 	rsbvc	r7, r1, #1929379840	; 0x73000000
  f4:	2e707574 	mrccs	5, 3, r7, cr0, cr4, {3}
  f8:	00000063 	andeq	r0, r0, r3, rrx
  fc:	05000000 	streq	r0, [r0, #-0]
 100:	00020c02 	andeq	r0, r2, r2, lsl #24
 104:	00d00308 	sbcseq	r0, r0, r8, lsl #6
 108:	03023001 	movweq	r3, #8193	; 0x2001
 10c:	00010100 	andeq	r0, r1, r0, lsl #2
 110:	02180205 	andseq	r0, r8, #1342177280	; 0x50000000
 114:	d5030800 	strle	r0, [r3, #-2048]	; 0xfffff800
 118:	02300100 	eorseq	r0, r0, #0, 2
 11c:	01010003 	tsteq	r1, r3
 120:	24020500 	strcs	r0, [r2], #-1280	; 0xfffffb00
 124:	03080002 	movweq	r0, #32770	; 0x8002
 128:	300100da 	ldrdcc	r0, [r1], -sl
 12c:	01000302 	tsteq	r0, r2, lsl #6
 130:	02050001 	andeq	r0, r5, #1
 134:	08000230 	stmdaeq	r0, {r4, r5, r9}
 138:	0100df03 	tsteq	r0, r3, lsl #30
 13c:	01040200 	mrseq	r0, R12_usr
 140:	0001022f 	andeq	r0, r1, pc, lsr #4
 144:	05000101 	streq	r0, [r0, #-257]	; 0xfffffeff
 148:	00023802 	andeq	r3, r2, r2, lsl #16
 14c:	00e40308 	rsceq	r0, r4, r8, lsl #6
 150:	03023001 	movweq	r3, #8193	; 0x2001
 154:	00010100 	andeq	r0, r1, r0, lsl #2
 158:	02440205 	subeq	r0, r4, #1342177280	; 0x50000000
 15c:	e9030800 	stmdb	r3, {fp}
 160:	302f0100 	eorcc	r0, pc, r0, lsl #2
 164:	022f3130 	eoreq	r3, pc, #48, 2
 168:	01010003 	tsteq	r1, r3
 16c:	60020500 	andvs	r0, r2, r0, lsl #10
 170:	03080002 	movweq	r0, #32770	; 0x8002
 174:	300100f6 	strdcc	r0, [r1], -r6
 178:	01000302 	tsteq	r0, r2, lsl #6
 17c:	02050001 	andeq	r0, r5, #1
 180:	0800026c 	stmdaeq	r0, {r2, r3, r5, r6, r9}
 184:	0100fd03 	tsteq	r0, r3, lsl #26	; <UNPREDICTABLE>
 188:	02002f40 	andeq	r2, r0, #64, 30	; 0x100
 18c:	003e0304 	eorseq	r0, lr, r4, lsl #6
 190:	64030402 	strvs	r0, [r3], #-1026	; 0xfffffbfe
 194:	01040200 	mrseq	r0, R12_usr
 198:	4e063c06 	cdpmi	12, 0, cr3, cr6, cr6, {0}
 19c:	01000b02 	tsteq	r0, r2, lsl #22
 1a0:	02050001 	andeq	r0, r5, #1
 1a4:	080002ac 	stmdaeq	r0, {r2, r3, r5, r7, r9}
 1a8:	01018903 	tsteq	r1, r3, lsl #18
 1ac:	0402003f 	streq	r0, [r2], #-63	; 0xffffffc1
 1b0:	02003e03 	andeq	r3, r0, #3, 28	; 0x30
 1b4:	003a0304 	eorseq	r0, sl, r4, lsl #6
 1b8:	06010402 	streq	r0, [r1], -r2, lsl #8
 1bc:	024e063c 	subeq	r0, lr, #60, 12	; 0x3c00000
 1c0:	01010008 	tsteq	r1, r8
 1c4:	00000158 	andeq	r0, r0, r8, asr r1
 1c8:	00cd0002 	sbceq	r0, sp, r2
 1cc:	01020000 	mrseq	r0, (UNDEF: 2)
 1d0:	000d0efb 	strdeq	r0, [sp], -fp
 1d4:	01010101 	tsteq	r1, r1, lsl #2
 1d8:	01000000 	mrseq	r0, (UNDEF: 0)
 1dc:	63010000 	movwvs	r0, #4096	; 0x1000
 1e0:	6f635c3a 	svcvs	0x00635c3a
 1e4:	6c69706d 	stclvs	0, cr7, [r9], #-436	; 0xfffffe4c
 1e8:	615c7265 	cmpvs	ip, r5, ror #4
 1ec:	6e2d6d72 	mcrvs	13, 1, r6, cr13, cr2, {3}
 1f0:	2d656e6f 	stclcs	14, cr6, [r5, #-444]!	; 0xfffffe44
 1f4:	69626165 	stmdbvs	r2!, {r0, r2, r5, r6, r8, sp, lr}^
 1f8:	342e352d 	strtcc	r3, [lr], #-1325	; 0xfffffad3
 1fc:	6d72615c 	ldfvse	f6, [r2, #-368]!	; 0xfffffe90
 200:	6e6f6e2d 	cdpvs	14, 6, cr6, cr15, cr13, {1}
 204:	61652d65 	cmnvs	r5, r5, ror #26
 208:	695c6962 	ldmdbvs	ip, {r1, r5, r6, r8, fp, sp, lr}^
 20c:	756c636e 	strbvc	r6, [ip, #-878]!	; 0xfffffc92
 210:	6d5c6564 	cfldr64vs	mvdx6, [ip, #-400]	; 0xfffffe70
 214:	69686361 	stmdbvs	r8!, {r0, r5, r6, r8, r9, sp, lr}^
 218:	6300656e 	movwvs	r6, #1390	; 0x56e
 21c:	6f635c3a 	svcvs	0x00635c3a
 220:	6c69706d 	stclvs	0, cr7, [r9], #-436	; 0xfffffe4c
 224:	615c7265 	cmpvs	ip, r5, ror #4
 228:	6e2d6d72 	mcrvs	13, 1, r6, cr13, cr2, {3}
 22c:	2d656e6f 	stclcs	14, cr6, [r5, #-444]!	; 0xfffffe44
 230:	69626165 	stmdbvs	r2!, {r0, r2, r5, r6, r8, sp, lr}^
 234:	342e352d 	strtcc	r3, [lr], #-1325	; 0xfffffad3
 238:	6d72615c 	ldfvse	f6, [r2, #-368]!	; 0xfffffe90
 23c:	6e6f6e2d 	cdpvs	14, 6, cr6, cr15, cr13, {1}
 240:	61652d65 	cmnvs	r5, r5, ror #26
 244:	695c6962 	ldmdbvs	ip, {r1, r5, r6, r8, fp, sp, lr}^
 248:	756c636e 	strbvc	r6, [ip, #-878]!	; 0xfffffc92
 24c:	735c6564 	cmpvc	ip, #100, 10	; 0x19000000
 250:	00007379 	andeq	r7, r0, r9, ror r3
 254:	74737973 	ldrbtvc	r7, [r3], #-2419	; 0xfffff68d
 258:	735f6d65 	cmpvc	pc, #6464	; 0x1940
 25c:	32336d74 	eorscc	r6, r3, #116, 26	; 0x1d00
 260:	78783066 	ldmdavc	r8!, {r1, r2, r5, r6, ip, sp}^
 264:	0000632e 	andeq	r6, r0, lr, lsr #6
 268:	645f0000 	ldrbvs	r0, [pc], #-0	; 270 <_Stack_Size+0x1f0>
 26c:	75616665 	strbvc	r6, [r1, #-1637]!	; 0xfffff99b
 270:	745f746c 	ldrbvc	r7, [pc], #-1132	; 278 <_Stack_Size+0x1f8>
 274:	73657079 	cmnvc	r5, #121	; 0x79
 278:	0100682e 	tsteq	r0, lr, lsr #16
 27c:	735f0000 	cmpvc	pc, #0
 280:	6e696474 	mcrvs	4, 3, r6, cr9, cr4, {3}
 284:	00682e74 	rsbeq	r2, r8, r4, ror lr
 288:	73000002 	movwvc	r0, #2
 28c:	32336d74 	eorscc	r6, r3, #116, 26	; 0x1d00
 290:	78783066 	ldmdavc	r8!, {r1, r2, r5, r6, ip, sp}^
 294:	0000682e 	andeq	r6, r0, lr, lsr #16
 298:	00000000 	andeq	r0, r0, r0
 29c:	02dc0205 	sbcseq	r0, ip, #1342177280	; 0x50000000
 2a0:	9f030800 	svcls	0x00030800
 2a4:	6d300101 	ldfvss	f0, [r0, #-4]!
 2a8:	6969696a 	stmdbvs	r9!, {r1, r3, r5, r6, r8, fp, sp, lr}^
 2ac:	3f696969 	svccc	0x00696969
 2b0:	000f022f 	andeq	r0, pc, pc, lsr #4
 2b4:	05000101 	streq	r0, [r0, #-257]	; 0xfffffeff
 2b8:	00036802 	andeq	r6, r3, r2, lsl #16
 2bc:	01e80308 	mvneq	r0, r8, lsl #6
 2c0:	5a853d01 	bpl	fe14f6cc <_stack_end+0xde14decd>
 2c4:	3d223d77 	stccc	13, cr3, [r2, #-476]!	; 0xfffffe24
 2c8:	4c676723 	stclmi	7, cr6, [r7], #-140	; 0xffffff74
 2cc:	681c603f 	ldmdavs	ip, {r0, r1, r2, r3, r4, r5, sp, lr}
 2d0:	243d22a0 	ldrtcs	r2, [sp], #-672	; 0xfffffd60
 2d4:	0e026792 	mcreq	7, 0, r6, cr2, cr2, {4}
 2d8:	00010100 	andeq	r0, r1, r0, lsl #2
 2dc:	043c0205 	ldrteq	r0, [ip], #-517	; 0xfffffdfb
 2e0:	9c030800 	stcls	8, cr0, [r3], {-0}
 2e4:	4e3d0102 	rsfmie	f0, f5, f2
 2e8:	02040200 	andeq	r0, r4, #0, 4
 2ec:	04020079 	streq	r0, [r2], #-121	; 0xffffff87
 2f0:	02006702 	andeq	r6, r0, #524288	; 0x80000
 2f4:	003d0204 	eorseq	r0, sp, r4, lsl #4
 2f8:	06010402 	streq	r0, [r1], -r2, lsl #8
 2fc:	685a063c 	ldmdavs	sl, {r2, r3, r4, r5, r9, sl}^
 300:	3f3f3140 	svccc	0x003f3140
 304:	77674d4d 	strbvc	r4, [r7, -sp, asr #26]!
 308:	04020077 	streq	r0, [r2], #-119	; 0xffffff89
 30c:	06200601 	strteq	r0, [r0], -r1, lsl #12
 310:	0069676b 	rsbeq	r6, r9, fp, ror #14
 314:	06010402 	streq	r0, [r1], -r2, lsl #8
 318:	026e0620 	rsbeq	r0, lr, #32, 12	; 0x2000000
 31c:	0101000a 	tsteq	r1, sl

Disassembly of section .debug_str:

00000000 <.debug_str>:
   0:	676e6f6c 	strbvs	r6, [lr, -ip, ror #30]!
   4:	6e6f6c20 	cdpvs	12, 6, cr6, cr15, cr0, {1}
   8:	6e692067 	cdpvs	0, 6, cr2, cr9, cr7, {3}
   c:	616d0074 	smcvs	53252	; 0xd004
  10:	632e6e69 			; <UNDEFINED> instruction: 0x632e6e69
  14:	74616400 	strbtvc	r6, [r1], #-1024	; 0xfffffc00
  18:	72615f61 	rsbvc	r5, r1, #388	; 0x184
  1c:	00796172 	rsbseq	r6, r9, r2, ror r1
  20:	63617473 	cmnvs	r1, #1929379840	; 0x73000000
  24:	72615f6b 	rsbvc	r5, r1, #428	; 0x1ac
  28:	00796172 	rsbseq	r6, r9, r2, ror r1
  2c:	676e6f6c 	strbvs	r6, [lr, -ip, ror #30]!
  30:	6e6f6c20 	cdpvs	12, 6, cr6, cr15, cr0, {1}
  34:	6e752067 	cdpvs	0, 7, cr2, cr5, cr7, {3}
  38:	6e676973 	mcrvs	9, 3, r6, cr7, cr3, {3}
  3c:	69206465 	stmdbvs	r0!, {r0, r2, r5, r6, sl, sp, lr}
  40:	5f00746e 	svcpl	0x0000746e
  44:	6e69755f 	mcrvs	5, 3, r7, cr9, cr15, {2}
  48:	745f3874 	ldrbvc	r3, [pc], #-2164	; 50 <_Stack_Size-0x30>
  4c:	554e4700 	strbpl	r4, [lr, #-1792]	; 0xfffff900
  50:	39394320 	ldmdbcc	r9!, {r5, r8, r9, lr}
  54:	342e3520 	strtcc	r3, [lr], #-1312	; 0xfffffae0
  58:	3220312e 	eorcc	r3, r0, #-2147483637	; 0x8000000b
  5c:	30363130 	eorscc	r3, r6, r0, lsr r1
  60:	20393036 	eorscs	r3, r9, r6, lsr r0
  64:	6c657228 	sfmvs	f7, 2, [r5], #-160	; 0xffffff60
  68:	65736165 	ldrbvs	r6, [r3, #-357]!	; 0xfffffe9b
  6c:	415b2029 	cmpmi	fp, r9, lsr #32
  70:	652f4d52 	strvs	r4, [pc, #-3410]!	; fffff326 <_stack_end+0xdfffdb27>
  74:	6465626d 	strbtvs	r6, [r5], #-621	; 0xfffffd93
  78:	2d646564 	cfstr64cs	mvdx6, [r4, #-400]!	; 0xfffffe70
  7c:	72622d35 	rsbvc	r2, r2, #3392	; 0xd40
  80:	68636e61 	stmdavs	r3!, {r0, r5, r6, r9, sl, fp, sp, lr}^
  84:	76657220 	strbtvc	r7, [r5], -r0, lsr #4
  88:	6f697369 	svcvs	0x00697369
  8c:	3332206e 	teqcc	r2, #110	; 0x6e
  90:	35313737 	ldrcc	r3, [r1, #-1847]!	; 0xfffff8c9
  94:	6d2d205d 	stcvs	0, cr2, [sp, #-372]!	; 0xfffffe8c
  98:	6d756874 	ldclvs	8, cr6, [r5, #-464]!	; 0xfffffe30
  9c:	6d2d2062 	stcvs	0, cr2, [sp, #-392]!	; 0xfffffe78
  a0:	3d757063 	ldclcc	0, cr7, [r5, #-396]!	; 0xfffffe74
  a4:	74726f63 	ldrbtvc	r6, [r2], #-3939	; 0xfffff09d
  a8:	6d2d7865 	stcvs	8, cr7, [sp, #-404]!	; 0xfffffe6c
  ac:	672d2030 			; <UNDEFINED> instruction: 0x672d2030
  b0:	304f2d20 	subcc	r2, pc, r0, lsr #26
  b4:	74732d20 	ldrbtvc	r2, [r3], #-3360	; 0xfffff2e0
  b8:	6e673d64 	cdpvs	13, 6, cr3, cr7, cr4, {3}
  bc:	20393975 	eorscs	r3, r9, r5, ror r9
  c0:	6474732d 	ldrbtvs	r7, [r4], #-813	; 0xfffffcd3
  c4:	3939633d 	ldmdbcc	r9!, {r0, r2, r3, r4, r5, r8, r9, sp, lr}
  c8:	66662d20 	strbtvs	r2, [r6], -r0, lsr #26
  cc:	74636e75 	strbtvc	r6, [r3], #-3701	; 0xfffff18b
  d0:	2d6e6f69 	stclcs	15, cr6, [lr, #-420]!	; 0xfffffe5c
  d4:	74636573 	strbtvc	r6, [r3], #-1395	; 0xfffffa8d
  d8:	736e6f69 	cmnvc	lr, #420	; 0x1a4
  dc:	64662d20 	strbtvs	r2, [r6], #-3360	; 0xfffff2e0
  e0:	2d617461 	cfstrdcs	mvd7, [r1, #-388]!	; 0xfffffe7c
  e4:	74636573 	strbtvc	r6, [r3], #-1395	; 0xfffffa8d
  e8:	736e6f69 	cmnvc	lr, #420	; 0x1a4
  ec:	5c3a4300 	ldcpl	3, cr4, [sl], #-0
  f0:	72657355 	rsbvc	r7, r5, #1409286145	; 0x54000001
  f4:	6f4d5c73 	svcvs	0x004d5c73
  f8:	7a746972 	bvc	1d1a6c8 <_Stack_Size+0x1d1a648>
  fc:	6f72445c 	svcvs	0x0072445c
 100:	786f6270 	stmdavc	pc!, {r4, r5, r6, r9, sp, lr}^	; <UNPREDICTABLE>
 104:	666f735c 			; <UNDEFINED> instruction: 0x666f735c
 108:	72617774 	rsbvc	r7, r1, #116, 14	; 0x1d00000
 10c:	6f727065 	svcvs	0x00727065
 110:	746b656a 	strbtvc	r6, [fp], #-1386	; 0xfffffa96
 114:	61625c65 	cmnvs	r2, r5, ror #24
 118:	656d6572 	strbvs	r6, [sp, #-1394]!	; 0xfffffa8e
 11c:	5f6c6174 	svcpl	0x006c6174
 120:	336d7473 	cmncc	sp, #1929379840	; 0x73000000
 124:	34306632 	ldrtcc	r6, [r0], #-1586	; 0xfffff9ce
 128:	6e750032 	mrcvs	0, 3, r0, cr5, cr2, {1}
 12c:	6e676973 	mcrvs	9, 3, r6, cr7, cr3, {3}
 130:	63206465 			; <UNDEFINED> instruction: 0x63206465
 134:	00726168 	rsbseq	r6, r2, r8, ror #2
 138:	726f6873 	rsbvc	r6, pc, #7536640	; 0x730000
 13c:	6e752074 	mrcvs	0, 3, r2, cr5, cr4, {3}
 140:	6e676973 	mcrvs	9, 3, r6, cr7, cr3, {3}
 144:	69206465 	stmdbvs	r0!, {r0, r2, r5, r6, sl, sp, lr}
 148:	6d00746e 	cfstrsvs	mvf7, [r0, #-440]	; 0xfffffe48
 14c:	006e6961 	rsbeq	r6, lr, r1, ror #18
 150:	726f6873 	rsbvc	r6, pc, #7536640	; 0x730000
 154:	6e692074 	mcrvs	0, 3, r2, cr9, cr4, {3}
 158:	69730074 	ldmdbvs	r3!, {r2, r4, r5, r6}^
 15c:	7974657a 	ldmdbvc	r4!, {r1, r3, r4, r5, r6, r8, sl, sp, lr}^
 160:	73006570 	movwvc	r6, #1392	; 0x570
 164:	74726174 	ldrbtvc	r6, [r2], #-372	; 0xfffffe8c
 168:	632e7075 			; <UNDEFINED> instruction: 0x632e7075
 16c:	73625f00 	cmnvc	r2, #0, 30
 170:	74735f73 	ldrbtvc	r5, [r3], #-3955	; 0xfffff08d
 174:	00747261 	rsbseq	r7, r4, r1, ror #4
 178:	646f725f 	strbtvs	r7, [pc], #-607	; 180 <_Stack_Size+0x100>
 17c:	5f617461 	svcpl	0x00617461
 180:	72617473 	rsbvc	r7, r1, #1929379840	; 0x73000000
 184:	65640074 	strbvs	r0, [r4, #-116]!	; 0xffffff8c
 188:	705f7473 	subsvc	r7, pc, r3, ror r4	; <UNPREDICTABLE>
 18c:	73655200 	cmnvc	r5, #0, 4
 190:	485f7465 	ldmdami	pc, {r0, r2, r5, r6, sl, ip, sp, lr}^	; <UNPREDICTABLE>
 194:	6c646e61 	stclvs	14, cr6, [r4], #-388	; 0xfffffe7c
 198:	53007265 	movwpl	r7, #613	; 0x265
 19c:	69547379 	ldmdbvs	r4, {r0, r3, r4, r5, r6, r8, r9, ip, sp, lr}^
 1a0:	485f6b63 	ldmdami	pc, {r0, r1, r5, r6, r8, r9, fp, sp, lr}^	; <UNPREDICTABLE>
 1a4:	6c646e61 	stclvs	14, cr6, [r4], #-388	; 0xfffffe7c
 1a8:	63007265 	movwvs	r7, #613	; 0x265
 1ac:	5f79706f 	svcpl	0x0079706f
 1b0:	61746164 	cmnvs	r4, r4, ror #2
 1b4:	63727300 	cmnvs	r2, #0, 6
 1b8:	5300705f 	movwpl	r7, #95	; 0x5f
 1bc:	485f4356 	ldmdami	pc, {r1, r2, r4, r6, r8, r9, lr}^	; <UNPREDICTABLE>
 1c0:	6c646e61 	stclvs	14, cr6, [r4], #-388	; 0xfffffe7c
 1c4:	48007265 	stmdami	r0, {r0, r2, r5, r6, r9, ip, sp, lr}
 1c8:	66647261 	strbtvs	r7, [r4], -r1, ror #4
 1cc:	746c7561 	strbtvc	r7, [ip], #-1377	; 0xfffffa9f
 1d0:	6e61485f 	mcrvs	8, 3, r4, cr1, cr15, {2}
 1d4:	72656c64 	rsbvc	r6, r5, #100, 24	; 0x6400
 1d8:	61645f00 	cmnvs	r4, r0, lsl #30
 1dc:	655f6174 	ldrbvs	r6, [pc, #-372]	; 70 <_Stack_Size-0x10>
 1e0:	5f00646e 	svcpl	0x0000646e
 1e4:	5f737362 	svcpl	0x00737362
 1e8:	00646e65 	rsbeq	r6, r4, r5, ror #28
 1ec:	5f494d4e 	svcpl	0x00494d4e
 1f0:	646e6148 	strbtvs	r6, [lr], #-328	; 0xfffffeb8
 1f4:	0072656c 	rsbseq	r6, r2, ip, ror #10
 1f8:	5f737362 	svcpl	0x00737362
 1fc:	6f72657a 	svcvs	0x0072657a
 200:	66656400 	strbtvs	r6, [r5], -r0, lsl #8
 204:	746c7561 	strbtvc	r7, [ip], #-1377	; 0xfffffa9f
 208:	6e61685f 	mcrvs	8, 3, r6, cr1, cr15, {2}
 20c:	72656c64 	rsbvc	r6, r5, #100, 24	; 0x6400
 210:	61645f00 	cmnvs	r4, r0, lsl #30
 214:	735f6174 	cmpvc	pc, #116, 2
 218:	74726174 	ldrbtvc	r6, [r2], #-372	; 0xfffffe8c
 21c:	72736900 	rsbsvc	r6, r3, #0, 18
 220:	6365765f 	cmnvs	r5, #99614720	; 0x5f00000
 224:	73726f74 	cmnvc	r2, #116, 30	; 0x1d0
 228:	6e655000 	cdpvs	0, 6, cr5, cr5, cr0, {0}
 22c:	5f565364 	svcpl	0x00565364
 230:	646e6148 	strbtvs	r6, [lr], #-328	; 0xfffffeb8
 234:	0072656c 	rsbseq	r6, r2, ip, ror #10
 238:	6174735f 	cmnvs	r4, pc, asr r3
 23c:	655f6b63 	ldrbvs	r6, [pc, #-2915]	; fffff6e1 <_stack_end+0xdfffdee2>
 240:	7000646e 	andvc	r6, r0, lr, ror #8
 244:	756d6c6c 	strbvc	r6, [sp, #-3180]!	; 0xfffff394
 248:	53006c6c 	movwpl	r6, #3180	; 0xc6c
 24c:	74726174 	ldrbtvc	r6, [r2], #-372	; 0xfffffe8c
 250:	6f437055 	svcvs	0x00437055
 254:	65746e75 	ldrbvs	r6, [r4, #-3701]!	; 0xfffff18b
 258:	46430072 			; <UNDEFINED> instruction: 0x46430072
 25c:	70005247 	andvc	r5, r0, r7, asr #4
 260:	6f736c6c 	svcvs	0x00736c6c
 264:	65637275 	strbvs	r7, [r3, #-629]!	; 0xfffffd8b
 268:	42484100 	submi	r4, r8, #0, 2
 26c:	52545352 	subspl	r5, r4, #1207959553	; 0x48000001
 270:	45534800 	ldrbmi	r4, [r3, #-2048]	; 0xfffff800
 274:	74617453 	strbtvc	r7, [r1], #-1107	; 0xfffffbad
 278:	46007375 			; <UNDEFINED> instruction: 0x46007375
 27c:	4853414c 	ldmdami	r3, {r2, r3, r6, r8, lr}^
 280:	7079545f 	rsbsvc	r5, r9, pc, asr r4
 284:	66654465 	strbtvs	r4, [r5], -r5, ror #8
 288:	42484100 	submi	r4, r8, #0, 2
 28c:	00524e45 	subseq	r4, r2, r5, asr #28
 290:	52474643 	subpl	r4, r7, #70254592	; 0x4300000
 294:	79730032 	ldmdbvc	r3!, {r1, r4, r5}^
 298:	6d657473 	cfstrdvs	mvd7, [r5, #-460]!	; 0xfffffe34
 29c:	6d74735f 	ldclvs	3, cr7, [r4, #-380]!	; 0xfffffe84
 2a0:	30663233 	rsbcc	r3, r6, r3, lsr r2
 2a4:	632e7878 			; <UNDEFINED> instruction: 0x632e7878
 2a8:	50525700 	subspl	r5, r2, r0, lsl #14
 2ac:	50410052 	subpl	r0, r1, r2, asr r0
 2b0:	4e453242 	cdpmi	2, 4, cr3, cr5, cr2, {2}
 2b4:	48410052 	stmdami	r1, {r1, r4, r6}^
 2b8:	65725042 	ldrbvs	r5, [r2, #-66]!	; 0xffffffbe
 2bc:	61546373 	cmpvs	r4, r3, ror r3
 2c0:	00656c62 	rsbeq	r6, r5, r2, ror #24
 2c4:	52474643 	subpl	r4, r7, #70254592	; 0x4300000
 2c8:	504f0033 	subpl	r0, pc, r3, lsr r0	; <UNPREDICTABLE>
 2cc:	59454b54 	stmdbpl	r5, {r2, r4, r6, r8, r9, fp, lr}^
 2d0:	72700052 	rsbsvc	r0, r0, #82	; 0x52
 2d4:	76696465 	strbtvc	r6, [r9], -r5, ror #8
 2d8:	63616631 	cmnvs	r1, #51380224	; 0x3100000
 2dc:	00726f74 	rsbseq	r6, r2, r4, ror pc
 2e0:	45534552 	ldrbmi	r4, [r3, #-1362]	; 0xfffffaae
 2e4:	44455652 	strbmi	r5, [r5], #-1618	; 0xfffff9ae
 2e8:	42504100 	subsmi	r4, r0, #0, 2
 2ec:	54535231 	ldrbpl	r5, [r3], #-561	; 0xfffffdcf
 2f0:	5f5f0052 	svcpl	0x005f0052
 2f4:	746e6975 	strbtvc	r6, [lr], #-2421	; 0xfffff68b
 2f8:	745f3233 	ldrbvc	r3, [pc], #-563	; 300 <_Stack_Size+0x280>
 2fc:	42504100 	subsmi	r4, r0, #0, 2
 300:	524e4531 	subpl	r4, lr, #205520896	; 0xc400000
 304:	42504100 	subsmi	r4, r0, #0, 2
 308:	54535232 	ldrbpl	r5, [r3], #-562	; 0xfffffdce
 30c:	65530052 	ldrbvs	r0, [r3, #-82]	; 0xffffffae
 310:	73795374 	cmnvc	r9, #116, 6	; 0xd0000001
 314:	636f6c43 	cmnvs	pc, #17152	; 0x4300
 318:	4442006b 	strbmi	r0, [r2], #-107	; 0xffffff95
 31c:	53005243 	movwpl	r5, #579	; 0x243
 320:	65747379 	ldrbvs	r7, [r4, #-889]!	; 0xfffffc87
 324:	696e496d 	stmdbvs	lr!, {r0, r2, r3, r5, r6, r8, fp, lr}^
 328:	79530074 	ldmdbvc	r3, {r2, r4, r5, r6}^
 32c:	6d657473 	cfstrdvs	mvd7, [r5, #-460]!	; 0xfffffe34
 330:	65726f43 	ldrbvs	r6, [r2, #-3907]!	; 0xfffff0bd
 334:	636f6c43 	cmnvs	pc, #17152	; 0x4300
 338:	7953006b 	ldmdbvc	r3, {r0, r1, r3, r5, r6}^
 33c:	6d657473 	cfstrdvs	mvd7, [r5, #-460]!	; 0xfffffe34
 340:	65726f43 	ldrbvs	r6, [r2, #-3907]!	; 0xfffff0bd
 344:	636f6c43 	cmnvs	pc, #17152	; 0x4300
 348:	6470556b 	ldrbtvs	r5, [r0], #-1387	; 0xfffffa95
 34c:	00657461 	rsbeq	r7, r5, r1, ror #8
 350:	69755f5f 	ldmdbvs	r5!, {r0, r1, r2, r3, r4, r6, r8, r9, sl, fp, ip, lr}^
 354:	3631746e 	ldrtcc	r7, [r1], -lr, ror #8
 358:	5200745f 	andpl	r7, r0, #1593835520	; 0x5f000000
 35c:	545f4343 	ldrbpl	r4, [pc], #-835	; 364 <_Stack_Size+0x2e4>
 360:	44657079 	strbtmi	r7, [r5], #-121	; 0xffffff87
 364:	52006665 	andpl	r6, r0, #105906176	; 0x6500000
 368:	54455345 	strbpl	r5, [r5], #-837	; 0xfffffcbb
	...

Disassembly of section .comment:

00000000 <.comment>:
   0:	3a434347 	bcc	10d0d24 <_Stack_Size+0x10d0ca4>
   4:	4e472820 	cdpmi	8, 4, cr2, cr7, cr0, {1}
   8:	6f542055 	svcvs	0x00542055
   c:	20736c6f 	rsbscs	r6, r3, pc, ror #24
  10:	20726f66 	rsbscs	r6, r2, r6, ror #30
  14:	204d5241 	subcs	r5, sp, r1, asr #4
  18:	65626d45 	strbvs	r6, [r2, #-3397]!	; 0xfffff2bb
  1c:	64656464 	strbtvs	r6, [r5], #-1124	; 0xfffffb9c
  20:	6f725020 	svcvs	0x00725020
  24:	73736563 	cmnvc	r3, #415236096	; 0x18c00000
  28:	2973726f 	ldmdbcs	r3!, {r0, r1, r2, r3, r5, r6, r9, ip, sp, lr}^
  2c:	342e3520 	strtcc	r3, [lr], #-1312	; 0xfffffae0
  30:	3220312e 	eorcc	r3, r0, #-2147483637	; 0x8000000b
  34:	30363130 	eorscc	r3, r6, r0, lsr r1
  38:	20393036 	eorscs	r3, r9, r6, lsr r0
  3c:	6c657228 	sfmvs	f7, 2, [r5], #-160	; 0xffffff60
  40:	65736165 	ldrbvs	r6, [r3, #-357]!	; 0xfffffe9b
  44:	415b2029 	cmpmi	fp, r9, lsr #32
  48:	652f4d52 	strvs	r4, [pc, #-3410]!	; fffff2fe <_stack_end+0xdfffdaff>
  4c:	6465626d 	strbtvs	r6, [r5], #-621	; 0xfffffd93
  50:	2d646564 	cfstr64cs	mvdx6, [r4, #-400]!	; 0xfffffe70
  54:	72622d35 	rsbvc	r2, r2, #3392	; 0xd40
  58:	68636e61 	stmdavs	r3!, {r0, r5, r6, r9, sl, fp, sp, lr}^
  5c:	76657220 	strbtvc	r7, [r5], -r0, lsr #4
  60:	6f697369 	svcvs	0x00697369
  64:	3332206e 	teqcc	r2, #110	; 0x6e
  68:	35313737 	ldrcc	r3, [r1, #-1847]!	; 0xfffff8c9
  6c:	Address 0x0000006c is out of bounds.


Disassembly of section .debug_frame:

00000000 <.debug_frame>:
   0:	0000000c 	andeq	r0, r0, ip
   4:	ffffffff 			; <UNDEFINED> instruction: 0xffffffff
   8:	7c020001 	stcvc	0, cr0, [r2], {1}
   c:	000d0c0e 	andeq	r0, sp, lr, lsl #24
  10:	0000001c 	andeq	r0, r0, ip, lsl r0
  14:	00000000 	andeq	r0, r0, r0
  18:	080001d8 	stmdaeq	r0, {r3, r4, r6, r7, r8}
  1c:	00000034 	andeq	r0, r0, r4, lsr r0
  20:	87080e41 	strhi	r0, [r8, -r1, asr #28]
  24:	41018e02 	tstmi	r1, r2, lsl #28
  28:	0d41180e 	stcleq	8, cr1, [r1, #-56]	; 0xffffffc8
  2c:	00000007 	andeq	r0, r0, r7
  30:	0000000c 	andeq	r0, r0, ip
  34:	ffffffff 			; <UNDEFINED> instruction: 0xffffffff
  38:	7c020001 	stcvc	0, cr0, [r2], {1}
  3c:	000d0c0e 	andeq	r0, sp, lr, lsl #24
  40:	00000018 	andeq	r0, r0, r8, lsl r0
  44:	00000030 	andeq	r0, r0, r0, lsr r0
  48:	0800020c 	stmdaeq	r0, {r2, r3, r9}
  4c:	0000000a 	andeq	r0, r0, sl
  50:	87080e41 	strhi	r0, [r8, -r1, asr #28]
  54:	41018e02 	tstmi	r1, r2, lsl #28
  58:	0000070d 	andeq	r0, r0, sp, lsl #14
  5c:	00000018 	andeq	r0, r0, r8, lsl r0
  60:	00000030 	andeq	r0, r0, r0, lsr r0
  64:	08000218 	stmdaeq	r0, {r3, r4, r9}
  68:	0000000a 	andeq	r0, r0, sl
  6c:	87080e41 	strhi	r0, [r8, -r1, asr #28]
  70:	41018e02 	tstmi	r1, r2, lsl #28
  74:	0000070d 	andeq	r0, r0, sp, lsl #14
  78:	00000018 	andeq	r0, r0, r8, lsl r0
  7c:	00000030 	andeq	r0, r0, r0, lsr r0
  80:	08000224 	stmdaeq	r0, {r2, r5, r9}
  84:	0000000a 	andeq	r0, r0, sl
  88:	87080e41 	strhi	r0, [r8, -r1, asr #28]
  8c:	41018e02 	tstmi	r1, r2, lsl #28
  90:	0000070d 	andeq	r0, r0, sp, lsl #14
  94:	00000018 	andeq	r0, r0, r8, lsl r0
  98:	00000030 	andeq	r0, r0, r0, lsr r0
  9c:	08000230 	stmdaeq	r0, {r4, r5, r9}
  a0:	00000006 	andeq	r0, r0, r6
  a4:	87080e41 	strhi	r0, [r8, -r1, asr #28]
  a8:	41018e02 	tstmi	r1, r2, lsl #28
  ac:	0000070d 	andeq	r0, r0, sp, lsl #14
  b0:	00000018 	andeq	r0, r0, r8, lsl r0
  b4:	00000030 	andeq	r0, r0, r0, lsr r0
  b8:	08000238 	stmdaeq	r0, {r3, r4, r5, r9}
  bc:	0000000a 	andeq	r0, r0, sl
  c0:	87080e41 	strhi	r0, [r8, -r1, asr #28]
  c4:	41018e02 	tstmi	r1, r2, lsl #28
  c8:	0000070d 	andeq	r0, r0, sp, lsl #14
  cc:	00000018 	andeq	r0, r0, r8, lsl r0
  d0:	00000030 	andeq	r0, r0, r0, lsr r0
  d4:	08000244 	stmdaeq	r0, {r2, r6, r9}
  d8:	0000001a 	andeq	r0, r0, sl, lsl r0
  dc:	87080e41 	strhi	r0, [r8, -r1, asr #28]
  e0:	41018e02 	tstmi	r1, r2, lsl #28
  e4:	0000070d 	andeq	r0, r0, sp, lsl #14
  e8:	00000018 	andeq	r0, r0, r8, lsl r0
  ec:	00000030 	andeq	r0, r0, r0, lsr r0
  f0:	08000260 	stmdaeq	r0, {r5, r6, r9}
  f4:	0000000a 	andeq	r0, r0, sl
  f8:	87080e41 	strhi	r0, [r8, -r1, asr #28]
  fc:	41018e02 	tstmi	r1, r2, lsl #28
 100:	0000070d 	andeq	r0, r0, sp, lsl #14
 104:	0000001c 	andeq	r0, r0, ip, lsl r0
 108:	00000030 	andeq	r0, r0, r0, lsr r0
 10c:	0800026c 	stmdaeq	r0, {r2, r3, r5, r6, r9}
 110:	00000040 	andeq	r0, r0, r0, asr #32
 114:	87080e41 	strhi	r0, [r8, -r1, asr #28]
 118:	41018e02 	tstmi	r1, r2, lsl #28
 11c:	0d41100e 	stcleq	0, cr1, [r1, #-56]	; 0xffffffc8
 120:	00000007 	andeq	r0, r0, r7
 124:	0000001c 	andeq	r0, r0, ip, lsl r0
 128:	00000030 	andeq	r0, r0, r0, lsr r0
 12c:	080002ac 	stmdaeq	r0, {r2, r3, r5, r7, r9}
 130:	00000030 	andeq	r0, r0, r0, lsr r0
 134:	87080e41 	strhi	r0, [r8, -r1, asr #28]
 138:	41018e02 	tstmi	r1, r2, lsl #28
 13c:	0d41100e 	stcleq	0, cr1, [r1, #-56]	; 0xffffffc8
 140:	00000007 	andeq	r0, r0, r7
 144:	0000000c 	andeq	r0, r0, ip
 148:	ffffffff 			; <UNDEFINED> instruction: 0xffffffff
 14c:	7c020001 	stcvc	0, cr0, [r2], {1}
 150:	000d0c0e 	andeq	r0, sp, lr, lsl #24
 154:	00000018 	andeq	r0, r0, r8, lsl r0
 158:	00000144 	andeq	r0, r0, r4, asr #2
 15c:	080002dc 	stmdaeq	r0, {r2, r3, r4, r6, r7, r9}
 160:	0000008c 	andeq	r0, r0, ip, lsl #1
 164:	87080e41 	strhi	r0, [r8, -r1, asr #28]
 168:	41018e02 	tstmi	r1, r2, lsl #28
 16c:	0000070d 	andeq	r0, r0, sp, lsl #14
 170:	0000001c 	andeq	r0, r0, ip, lsl r0
 174:	00000144 	andeq	r0, r0, r4, asr #2
 178:	08000368 	stmdaeq	r0, {r3, r5, r6, r8, r9}
 17c:	000000d4 	ldrdeq	r0, [r0], -r4
 180:	87080e41 	strhi	r0, [r8, -r1, asr #28]
 184:	41018e02 	tstmi	r1, r2, lsl #28
 188:	0d41180e 	stcleq	8, cr1, [r1, #-56]	; 0xffffffc8
 18c:	00000007 	andeq	r0, r0, r7
 190:	0000001c 	andeq	r0, r0, ip, lsl r0
 194:	00000144 	andeq	r0, r0, r4, asr #2
 198:	0800043c 	stmdaeq	r0, {r2, r3, r4, r5, sl}
 19c:	000000e0 	andeq	r0, r0, r0, ror #1
 1a0:	87080e41 	strhi	r0, [r8, -r1, asr #28]
 1a4:	41018e02 	tstmi	r1, r2, lsl #28
 1a8:	0d41100e 	stcleq	0, cr1, [r1, #-56]	; 0xffffffc8
 1ac:	00000007 	andeq	r0, r0, r7
 1b0:	0000000c 	andeq	r0, r0, ip
 1b4:	ffffffff 			; <UNDEFINED> instruction: 0xffffffff
 1b8:	7c010001 	stcvc	0, cr0, [r1], {1}
 1bc:	000d0c0e 	andeq	r0, sp, lr, lsl #24
 1c0:	0000000c 	andeq	r0, r0, ip
 1c4:	000001b0 			; <UNDEFINED> instruction: 0x000001b0
 1c8:	080000c1 	stmdaeq	r0, {r0, r6, r7}
 1cc:	0000010a 	andeq	r0, r0, sl, lsl #2
 1d0:	0000000c 	andeq	r0, r0, ip
 1d4:	ffffffff 			; <UNDEFINED> instruction: 0xffffffff
 1d8:	7c020001 	stcvc	0, cr0, [r2], {1}
 1dc:	000d0c0e 	andeq	r0, sp, lr, lsl #24
 1e0:	00000018 	andeq	r0, r0, r8, lsl r0
 1e4:	000001d0 	ldrdeq	r0, [r0], -r0	; <UNPREDICTABLE>
 1e8:	0800051c 	stmdaeq	r0, {r2, r3, r4, r8, sl}
 1ec:	0000007c 	andeq	r0, r0, ip, ror r0
 1f0:	84100e41 	ldrhi	r0, [r0], #-3649	; 0xfffff1bf
 1f4:	86038504 	strhi	r8, [r3], -r4, lsl #10
 1f8:	00018e02 	andeq	r8, r1, r2, lsl #28
 1fc:	0000000c 	andeq	r0, r0, ip
 200:	ffffffff 			; <UNDEFINED> instruction: 0xffffffff
 204:	7c020001 	stcvc	0, cr0, [r2], {1}
 208:	000d0c0e 	andeq	r0, sp, lr, lsl #24
 20c:	00000014 	andeq	r0, r0, r4, lsl r0
 210:	000001fc 	strdeq	r0, [r0], -ip
 214:	08000598 	stmdaeq	r0, {r3, r4, r7, r8, sl}
 218:	00000068 	andeq	r0, r0, r8, rrx
 21c:	84080e41 	strhi	r0, [r8], #-3649	; 0xfffff1bf
 220:	00018e02 	andeq	r8, r1, r2, lsl #28
